Archive member included to satisfy reference by file (symbol)

.\libtomcrypt.a(base64_decode.o)
                              rsa_verify.o (base64_decode)
.\libtomcrypt.a(crypt_argchk.o)
                              .\libtomcrypt.a(base64_decode.o) (crypt_argchk)
.\libtomcrypt.a(crypt_ltc_mp_descriptor.o)
                              rsa_verify.o (ltc_mp)
.\libtomcrypt.a(ltm_desc.o)   rsa_verify.o (ltm_desc)
.\libtomcrypt.a(pkcs_1_v1_5_decode.o)
                              rsa_verify.o (pkcs_1_v1_5_decode)
.\libtomcrypt.a(rsa_exptmod.o)
                              .\libtomcrypt.a(ltm_desc.o) (rsa_exptmod)
.\libtomcrypt.a(rsa_free.o)   rsa_verify.o (rsa_free)
.\libtomcrypt.a(rsa_import.o)
                              rsa_verify.o (rsa_import)
.\libtomcrypt.a(rsa_make_key.o)
                              .\libtomcrypt.a(ltm_desc.o) (rsa_make_key)
.\libtomcrypt.a(sha256.o)     rsa_verify.o (sha256_init)
.\libtomcrypt.a(zeromem.o)    .\libtomcrypt.a(rsa_exptmod.o) (zeromem)
.\libtomcrypt.a(bn_mp_2expt.o)
                              .\libtomcrypt.a(ltm_desc.o) (mp_2expt)
.\libtomcrypt.a(bn_mp_add.o)  .\libtomcrypt.a(ltm_desc.o) (mp_add)
.\libtomcrypt.a(bn_mp_add_d.o)
                              .\libtomcrypt.a(ltm_desc.o) (mp_add_d)
.\libtomcrypt.a(bn_mp_clamp.o)
                              .\libtomcrypt.a(bn_mp_add_d.o) (mp_clamp)
.\libtomcrypt.a(bn_mp_clear.o)
                              .\libtomcrypt.a(ltm_desc.o) (mp_clear)
.\libtomcrypt.a(bn_mp_cmp.o)  .\libtomcrypt.a(ltm_desc.o) (mp_cmp)
.\libtomcrypt.a(bn_mp_cmp_d.o)
                              .\libtomcrypt.a(ltm_desc.o) (mp_cmp_d)
.\libtomcrypt.a(bn_mp_cmp_mag.o)
                              .\libtomcrypt.a(bn_mp_add.o) (mp_cmp_mag)
.\libtomcrypt.a(bn_mp_cnt_lsb.o)
                              .\libtomcrypt.a(ltm_desc.o) (mp_cnt_lsb)
.\libtomcrypt.a(bn_mp_copy.o)
                              .\libtomcrypt.a(ltm_desc.o) (mp_copy)
.\libtomcrypt.a(bn_mp_count_bits.o)
                              .\libtomcrypt.a(ltm_desc.o) (mp_count_bits)
.\libtomcrypt.a(bn_mp_div.o)  .\libtomcrypt.a(ltm_desc.o) (mp_div)
.\libtomcrypt.a(bn_mp_div_2.o)
                              .\libtomcrypt.a(ltm_desc.o) (mp_div_2)
.\libtomcrypt.a(bn_mp_div_2d.o)
                              .\libtomcrypt.a(bn_mp_div.o) (mp_div_2d)
.\libtomcrypt.a(bn_mp_exch.o)
                              .\libtomcrypt.a(bn_mp_div.o) (mp_exch)
.\libtomcrypt.a(bn_mp_exptmod.o)
                              .\libtomcrypt.a(ltm_desc.o) (mp_exptmod)
.\libtomcrypt.a(bn_mp_exptmod_fast.o)
                              .\libtomcrypt.a(bn_mp_exptmod.o) (mp_exptmod_fast)
.\libtomcrypt.a(bn_mp_gcd.o)  .\libtomcrypt.a(ltm_desc.o) (mp_gcd)
.\libtomcrypt.a(bn_mp_get_int.o)
                              .\libtomcrypt.a(ltm_desc.o) (mp_get_int)
.\libtomcrypt.a(bn_mp_grow.o)
                              .\libtomcrypt.a(bn_mp_2expt.o) (mp_grow)
.\libtomcrypt.a(bn_mp_init.o)
                              .\libtomcrypt.a(ltm_desc.o) (mp_init)
.\libtomcrypt.a(bn_mp_init_copy.o)
                              .\libtomcrypt.a(bn_mp_div.o) (mp_init_copy)
.\libtomcrypt.a(bn_mp_init_size.o)
                              .\libtomcrypt.a(bn_mp_div.o) (mp_init_size)
.\libtomcrypt.a(bn_mp_invmod.o)
                              .\libtomcrypt.a(ltm_desc.o) (mp_invmod)
.\libtomcrypt.a(bn_mp_invmod_slow.o)
                              .\libtomcrypt.a(bn_mp_invmod.o) (mp_invmod_slow)
.\libtomcrypt.a(bn_mp_lcm.o)  .\libtomcrypt.a(ltm_desc.o) (mp_lcm)
.\libtomcrypt.a(bn_mp_lshd.o)
                              .\libtomcrypt.a(bn_mp_div.o) (mp_lshd)
.\libtomcrypt.a(bn_mp_mod.o)  .\libtomcrypt.a(bn_mp_exptmod_fast.o) (mp_mod)
.\libtomcrypt.a(bn_mp_mod_2d.o)
                              .\libtomcrypt.a(bn_mp_div_2d.o) (mp_mod_2d)
.\libtomcrypt.a(bn_mp_mod_d.o)
                              .\libtomcrypt.a(ltm_desc.o) (mp_mod_d)
.\libtomcrypt.a(bn_mp_montgomery_calc_normalization.o)
                              .\libtomcrypt.a(ltm_desc.o) (mp_montgomery_calc_normalization)
.\libtomcrypt.a(bn_mp_montgomery_reduce.o)
                              .\libtomcrypt.a(ltm_desc.o) (mp_montgomery_reduce)
.\libtomcrypt.a(bn_mp_montgomery_setup.o)
                              .\libtomcrypt.a(ltm_desc.o) (mp_montgomery_setup)
.\libtomcrypt.a(bn_mp_mul.o)  .\libtomcrypt.a(ltm_desc.o) (mp_mul)
.\libtomcrypt.a(bn_mp_mul_2.o)
                              .\libtomcrypt.a(bn_mp_montgomery_calc_normalization.o) (mp_mul_2)
.\libtomcrypt.a(bn_mp_mul_2d.o)
                              .\libtomcrypt.a(bn_mp_div.o) (mp_mul_2d)
.\libtomcrypt.a(bn_mp_mul_d.o)
                              .\libtomcrypt.a(ltm_desc.o) (mp_mul_d)
.\libtomcrypt.a(bn_mp_mulmod.o)
                              .\libtomcrypt.a(ltm_desc.o) (mp_mulmod)
.\libtomcrypt.a(bn_mp_neg.o)  .\libtomcrypt.a(ltm_desc.o) (mp_neg)
.\libtomcrypt.a(bn_mp_prime_is_prime.o)
                              .\libtomcrypt.a(ltm_desc.o) (mp_prime_is_prime)
.\libtomcrypt.a(bn_mp_prime_miller_rabin.o)
                              .\libtomcrypt.a(bn_mp_prime_is_prime.o) (mp_prime_miller_rabin)
.\libtomcrypt.a(bn_mp_read_radix.o)
                              .\libtomcrypt.a(ltm_desc.o) (mp_read_radix)
.\libtomcrypt.a(bn_mp_read_unsigned_bin.o)
                              .\libtomcrypt.a(ltm_desc.o) (mp_read_unsigned_bin)
.\libtomcrypt.a(bn_mp_reduce_2k.o)
                              .\libtomcrypt.a(bn_mp_exptmod_fast.o) (mp_reduce_2k)
.\libtomcrypt.a(bn_mp_reduce_2k_setup.o)
                              .\libtomcrypt.a(bn_mp_exptmod_fast.o) (mp_reduce_2k_setup)
.\libtomcrypt.a(bn_mp_reduce_is_2k.o)
                              .\libtomcrypt.a(bn_mp_exptmod.o) (mp_reduce_is_2k)
.\libtomcrypt.a(bn_mp_reduce_is_2k_l.o)
                              .\libtomcrypt.a(bn_mp_exptmod.o) (mp_reduce_is_2k_l)
.\libtomcrypt.a(bn_mp_rshd.o)
                              .\libtomcrypt.a(bn_mp_div.o) (mp_rshd)
.\libtomcrypt.a(bn_mp_set.o)  .\libtomcrypt.a(bn_mp_exptmod_fast.o) (mp_set)
.\libtomcrypt.a(bn_mp_set_int.o)
                              .\libtomcrypt.a(ltm_desc.o) (mp_set_int)
.\libtomcrypt.a(bn_mp_sqr.o)  .\libtomcrypt.a(ltm_desc.o) (mp_sqr)
.\libtomcrypt.a(bn_mp_sqrmod.o)
                              .\libtomcrypt.a(ltm_desc.o) (mp_sqrmod)
.\libtomcrypt.a(bn_mp_sub.o)  .\libtomcrypt.a(ltm_desc.o) (mp_sub)
.\libtomcrypt.a(bn_mp_sub_d.o)
                              .\libtomcrypt.a(ltm_desc.o) (mp_sub_d)
.\libtomcrypt.a(bn_mp_to_unsigned_bin.o)
                              .\libtomcrypt.a(ltm_desc.o) (mp_to_unsigned_bin)
.\libtomcrypt.a(bn_mp_toom_mul.o)
                              .\libtomcrypt.a(bn_mp_mul.o) (mp_toom_mul)
.\libtomcrypt.a(bn_mp_toom_sqr.o)
                              .\libtomcrypt.a(bn_mp_sqr.o) (mp_toom_sqr)
.\libtomcrypt.a(bn_mp_toradix.o)
                              .\libtomcrypt.a(ltm_desc.o) (mp_toradix)
.\libtomcrypt.a(bn_mp_unsigned_bin_size.o)
                              .\libtomcrypt.a(ltm_desc.o) (mp_unsigned_bin_size)
.\libtomcrypt.a(bn_mp_zero.o)
                              .\libtomcrypt.a(bn_mp_2expt.o) (mp_zero)
.\libtomcrypt.a(bn_prime_tab.o)
                              .\libtomcrypt.a(bn_mp_prime_is_prime.o) (ltm_prime_tab)
.\libtomcrypt.a(bn_reverse.o)
                              .\libtomcrypt.a(bn_mp_to_unsigned_bin.o) (bn_reverse)
.\libtomcrypt.a(bn_s_mp_add.o)
                              .\libtomcrypt.a(bn_mp_add.o) (s_mp_add)
.\libtomcrypt.a(bn_s_mp_exptmod.o)
                              .\libtomcrypt.a(bn_mp_exptmod.o) (s_mp_exptmod)
.\libtomcrypt.a(bn_s_mp_mul_digs.o)
                              .\libtomcrypt.a(bn_mp_mul.o) (s_mp_mul_digs)
.\libtomcrypt.a(bn_s_mp_sqr.o)
                              .\libtomcrypt.a(bn_mp_sqr.o) (s_mp_sqr)
.\libtomcrypt.a(bn_s_mp_sub.o)
                              .\libtomcrypt.a(bn_mp_add.o) (s_mp_sub)
.\libtomcrypt.a(bncore.o)     .\libtomcrypt.a(bn_mp_sqr.o) (TOOM_SQR_CUTOFF)
.\libtomcrypt.a(crypt_prng_is_valid.o)
                              .\libtomcrypt.a(rsa_make_key.o) (prng_is_valid)
.\libtomcrypt.a(der_decode_sequence_ex.o)
                              .\libtomcrypt.a(rsa_import.o) (der_decode_sequence_ex)
.\libtomcrypt.a(der_decode_sequence_multi.o)
                              .\libtomcrypt.a(rsa_import.o) (der_decode_sequence_multi)
.\libtomcrypt.a(der_decode_short_integer.o)
                              .\libtomcrypt.a(der_decode_sequence_ex.o) (der_decode_short_integer)
.\libtomcrypt.a(der_decode_utctime.o)
                              .\libtomcrypt.a(der_decode_sequence_ex.o) (der_decode_utctime)
.\libtomcrypt.a(der_decode_utf8_string.o)
                              .\libtomcrypt.a(der_decode_sequence_ex.o) (der_decode_utf8_string)
.\libtomcrypt.a(der_length_bit_string.o)
                              .\libtomcrypt.a(der_decode_sequence_ex.o) (der_length_bit_string)
.\libtomcrypt.a(der_length_boolean.o)
                              .\libtomcrypt.a(der_decode_sequence_ex.o) (der_length_boolean)
.\libtomcrypt.a(der_length_ia5_string.o)
                              .\libtomcrypt.a(der_decode_utctime.o) (der_ia5_value_decode)
.\libtomcrypt.a(der_length_integer.o)
                              .\libtomcrypt.a(der_decode_sequence_ex.o) (der_length_integer)
.\libtomcrypt.a(der_length_object_identifier.o)
                              .\libtomcrypt.a(der_decode_sequence_ex.o) (der_length_object_identifier)
.\libtomcrypt.a(der_length_octet_string.o)
                              .\libtomcrypt.a(der_decode_sequence_ex.o) (der_length_octet_string)
.\libtomcrypt.a(der_length_printable_string.o)
                              .\libtomcrypt.a(der_decode_sequence_ex.o) (der_length_printable_string)
.\libtomcrypt.a(der_length_sequence.o)
                              .\libtomcrypt.a(der_decode_sequence_ex.o) (der_length_sequence)
.\libtomcrypt.a(der_length_short_integer.o)
                              .\libtomcrypt.a(der_decode_sequence_ex.o) (der_length_short_integer)
.\libtomcrypt.a(der_length_utctime.o)
                              .\libtomcrypt.a(der_length_sequence.o) (der_length_utctime)
.\libtomcrypt.a(der_length_utf8_string.o)
                              .\libtomcrypt.a(der_decode_sequence_ex.o) (der_length_utf8_string)
.\libtomcrypt.a(multi.o)      .\libtomcrypt.a(rsa_exptmod.o) (ltc_init_multi)
.\libtomcrypt.a(rand_prime.o)
                              .\libtomcrypt.a(rsa_make_key.o) (rand_prime)
.\libtomcrypt.a(bn_fast_mp_invmod.o)
                              .\libtomcrypt.a(bn_mp_invmod.o) (fast_mp_invmod)
.\libtomcrypt.a(bn_fast_mp_montgomery_reduce.o)
                              .\libtomcrypt.a(bn_mp_exptmod_fast.o) (fast_mp_montgomery_reduce)
.\libtomcrypt.a(bn_fast_s_mp_mul_digs.o)
                              .\libtomcrypt.a(bn_mp_mul.o) (fast_s_mp_mul_digs)
.\libtomcrypt.a(bn_fast_s_mp_sqr.o)
                              .\libtomcrypt.a(bn_mp_sqr.o) (fast_s_mp_sqr)
.\libtomcrypt.a(bn_mp_abs.o)  .\libtomcrypt.a(bn_mp_exptmod.o) (mp_abs)
.\libtomcrypt.a(bn_mp_clear_multi.o)
                              .\libtomcrypt.a(bn_mp_exptmod.o) (mp_clear_multi)
.\libtomcrypt.a(bn_mp_div_3.o)
                              .\libtomcrypt.a(bn_mp_toom_mul.o) (mp_div_3)
.\libtomcrypt.a(bn_mp_div_d.o)
                              .\libtomcrypt.a(bn_mp_mod_d.o) (mp_div_d)
.\libtomcrypt.a(bn_mp_dr_is_modulus.o)
                              .\libtomcrypt.a(bn_mp_exptmod.o) (mp_dr_is_modulus)
.\libtomcrypt.a(bn_mp_dr_reduce.o)
                              .\libtomcrypt.a(bn_mp_exptmod_fast.o) (mp_dr_reduce)
.\libtomcrypt.a(bn_mp_dr_setup.o)
                              .\libtomcrypt.a(bn_mp_exptmod_fast.o) (mp_dr_setup)
.\libtomcrypt.a(bn_mp_init_multi.o)
                              .\libtomcrypt.a(bn_mp_invmod_slow.o) (mp_init_multi)
.\libtomcrypt.a(bn_mp_karatsuba_mul.o)
                              .\libtomcrypt.a(bn_mp_mul.o) (mp_karatsuba_mul)
.\libtomcrypt.a(bn_mp_karatsuba_sqr.o)
                              .\libtomcrypt.a(bn_mp_sqr.o) (mp_karatsuba_sqr)
.\libtomcrypt.a(bn_mp_prime_is_divisible.o)
                              .\libtomcrypt.a(bn_mp_prime_is_prime.o) (mp_prime_is_divisible)
.\libtomcrypt.a(bn_mp_radix_smap.o)
                              .\libtomcrypt.a(bn_mp_read_radix.o) (mp_s_rmap)
.\libtomcrypt.a(bn_mp_reduce.o)
                              .\libtomcrypt.a(bn_s_mp_exptmod.o) (mp_reduce)
.\libtomcrypt.a(bn_mp_reduce_2k_l.o)
                              .\libtomcrypt.a(bn_s_mp_exptmod.o) (mp_reduce_2k_l)
.\libtomcrypt.a(bn_mp_reduce_2k_setup_l.o)
                              .\libtomcrypt.a(bn_s_mp_exptmod.o) (mp_reduce_2k_setup_l)
.\libtomcrypt.a(bn_mp_reduce_setup.o)
                              .\libtomcrypt.a(bn_s_mp_exptmod.o) (mp_reduce_setup)
.\libtomcrypt.a(bn_s_mp_mul_high_digs.o)
                              .\libtomcrypt.a(bn_mp_reduce.o) (s_mp_mul_high_digs)
.\libtomcrypt.a(crypt_prng_descriptor.o)
                              .\libtomcrypt.a(crypt_prng_is_valid.o) (prng_descriptor)
.\libtomcrypt.a(der_decode_bit_string.o)
                              .\libtomcrypt.a(der_decode_sequence_ex.o) (der_decode_bit_string)
.\libtomcrypt.a(der_decode_boolean.o)
                              .\libtomcrypt.a(der_decode_sequence_ex.o) (der_decode_boolean)
.\libtomcrypt.a(der_decode_choice.o)
                              .\libtomcrypt.a(der_decode_sequence_ex.o) (der_decode_choice)
.\libtomcrypt.a(der_decode_ia5_string.o)
                              .\libtomcrypt.a(der_decode_sequence_ex.o) (der_decode_ia5_string)
.\libtomcrypt.a(der_decode_integer.o)
                              .\libtomcrypt.a(der_decode_sequence_ex.o) (der_decode_integer)
.\libtomcrypt.a(der_decode_object_identifier.o)
                              .\libtomcrypt.a(der_decode_sequence_ex.o) (der_decode_object_identifier)
.\libtomcrypt.a(der_decode_octet_string.o)
                              .\libtomcrypt.a(der_decode_sequence_ex.o) (der_decode_octet_string)
.\libtomcrypt.a(der_decode_printable_string.o)
                              .\libtomcrypt.a(der_decode_sequence_ex.o) (der_decode_printable_string)
.\libtomcrypt.a(bn_fast_s_mp_mul_high_digs.o)
                              .\libtomcrypt.a(bn_s_mp_mul_high_digs.o) (fast_s_mp_mul_high_digs)
C:/Program Files (x86)/mingw-w64/i686-8.1.0-win32-dwarf-rt_v6-rev0/mingw32/bin/../lib/gcc/i686-w64-mingw32/8.1.0\libstdc++.a(class_type_info.o)
                              main.o (vtable for __cxxabiv1::__class_type_info)
C:/Program Files (x86)/mingw-w64/i686-8.1.0-win32-dwarf-rt_v6-rev0/mingw32/bin/../lib/gcc/i686-w64-mingw32/8.1.0\libstdc++.a(del_ops.o)
                              main.o (operator delete(void*, unsigned int))
C:/Program Files (x86)/mingw-w64/i686-8.1.0-win32-dwarf-rt_v6-rev0/mingw32/bin/../lib/gcc/i686-w64-mingw32/8.1.0\libstdc++.a(eh_alloc.o)
                              main.o (__cxa_allocate_exception)
C:/Program Files (x86)/mingw-w64/i686-8.1.0-win32-dwarf-rt_v6-rev0/mingw32/bin/../lib/gcc/i686-w64-mingw32/8.1.0\libstdc++.a(eh_catch.o)
                              main.o (__cxa_begin_catch)
C:/Program Files (x86)/mingw-w64/i686-8.1.0-win32-dwarf-rt_v6-rev0/mingw32/bin/../lib/gcc/i686-w64-mingw32/8.1.0\libstdc++.a(eh_exception.o)
                              C:/Program Files (x86)/mingw-w64/i686-8.1.0-win32-dwarf-rt_v6-rev0/mingw32/bin/../lib/gcc/i686-w64-mingw32/8.1.0\libstdc++.a(eh_alloc.o) (std::exception::~exception())
C:/Program Files (x86)/mingw-w64/i686-8.1.0-win32-dwarf-rt_v6-rev0/mingw32/bin/../lib/gcc/i686-w64-mingw32/8.1.0\libstdc++.a(eh_globals.o)
                              C:/Program Files (x86)/mingw-w64/i686-8.1.0-win32-dwarf-rt_v6-rev0/mingw32/bin/../lib/gcc/i686-w64-mingw32/8.1.0\libstdc++.a(eh_catch.o) (__cxa_get_globals)
C:/Program Files (x86)/mingw-w64/i686-8.1.0-win32-dwarf-rt_v6-rev0/mingw32/bin/../lib/gcc/i686-w64-mingw32/8.1.0\libstdc++.a(eh_personality.o)
                              main.o (__gxx_personality_v0)
C:/Program Files (x86)/mingw-w64/i686-8.1.0-win32-dwarf-rt_v6-rev0/mingw32/bin/../lib/gcc/i686-w64-mingw32/8.1.0\libstdc++.a(eh_terminate.o)
                              C:/Program Files (x86)/mingw-w64/i686-8.1.0-win32-dwarf-rt_v6-rev0/mingw32/bin/../lib/gcc/i686-w64-mingw32/8.1.0\libstdc++.a(eh_personality.o) (__cxxabiv1::__terminate(void (*)()))
C:/Program Files (x86)/mingw-w64/i686-8.1.0-win32-dwarf-rt_v6-rev0/mingw32/bin/../lib/gcc/i686-w64-mingw32/8.1.0\libstdc++.a(eh_term_handler.o)
                              C:/Program Files (x86)/mingw-w64/i686-8.1.0-win32-dwarf-rt_v6-rev0/mingw32/bin/../lib/gcc/i686-w64-mingw32/8.1.0\libstdc++.a(eh_terminate.o) (__cxxabiv1::__terminate_handler)
C:/Program Files (x86)/mingw-w64/i686-8.1.0-win32-dwarf-rt_v6-rev0/mingw32/bin/../lib/gcc/i686-w64-mingw32/8.1.0\libstdc++.a(eh_throw.o)
                              main.o (__cxa_throw)
C:/Program Files (x86)/mingw-w64/i686-8.1.0-win32-dwarf-rt_v6-rev0/mingw32/bin/../lib/gcc/i686-w64-mingw32/8.1.0\libstdc++.a(eh_unex_handler.o)
                              C:/Program Files (x86)/mingw-w64/i686-8.1.0-win32-dwarf-rt_v6-rev0/mingw32/bin/../lib/gcc/i686-w64-mingw32/8.1.0\libstdc++.a(eh_terminate.o) (__cxxabiv1::__unexpected_handler)
C:/Program Files (x86)/mingw-w64/i686-8.1.0-win32-dwarf-rt_v6-rev0/mingw32/bin/../lib/gcc/i686-w64-mingw32/8.1.0\libstdc++.a(new_op.o)
                              main.o (operator new(unsigned int))
C:/Program Files (x86)/mingw-w64/i686-8.1.0-win32-dwarf-rt_v6-rev0/mingw32/bin/../lib/gcc/i686-w64-mingw32/8.1.0\libstdc++.a(pure.o)
                              C:/Program Files (x86)/mingw-w64/i686-8.1.0-win32-dwarf-rt_v6-rev0/mingw32/bin/../lib/gcc/i686-w64-mingw32/8.1.0\libstdc++.a(eh_exception.o) (__cxa_pure_virtual)
C:/Program Files (x86)/mingw-w64/i686-8.1.0-win32-dwarf-rt_v6-rev0/mingw32/bin/../lib/gcc/i686-w64-mingw32/8.1.0\libstdc++.a(si_class_type_info.o)
                              C:/Program Files (x86)/mingw-w64/i686-8.1.0-win32-dwarf-rt_v6-rev0/mingw32/bin/../lib/gcc/i686-w64-mingw32/8.1.0\libstdc++.a(class_type_info.o) (vtable for __cxxabiv1::__si_class_type_info)
C:/Program Files (x86)/mingw-w64/i686-8.1.0-win32-dwarf-rt_v6-rev0/mingw32/bin/../lib/gcc/i686-w64-mingw32/8.1.0\libstdc++.a(tinfo.o)
                              C:/Program Files (x86)/mingw-w64/i686-8.1.0-win32-dwarf-rt_v6-rev0/mingw32/bin/../lib/gcc/i686-w64-mingw32/8.1.0\libstdc++.a(class_type_info.o) (std::type_info::~type_info())
C:/Program Files (x86)/mingw-w64/i686-8.1.0-win32-dwarf-rt_v6-rev0/mingw32/bin/../lib/gcc/i686-w64-mingw32/8.1.0\libstdc++.a(vterminate.o)
                              C:/Program Files (x86)/mingw-w64/i686-8.1.0-win32-dwarf-rt_v6-rev0/mingw32/bin/../lib/gcc/i686-w64-mingw32/8.1.0\libstdc++.a(eh_term_handler.o) (__gnu_cxx::__verbose_terminate_handler())
C:/Program Files (x86)/mingw-w64/i686-8.1.0-win32-dwarf-rt_v6-rev0/mingw32/bin/../lib/gcc/i686-w64-mingw32/8.1.0\libstdc++.a(bad_alloc.o)
                              C:/Program Files (x86)/mingw-w64/i686-8.1.0-win32-dwarf-rt_v6-rev0/mingw32/bin/../lib/gcc/i686-w64-mingw32/8.1.0\libstdc++.a(new_op.o) (std::bad_alloc::~bad_alloc())
C:/Program Files (x86)/mingw-w64/i686-8.1.0-win32-dwarf-rt_v6-rev0/mingw32/bin/../lib/gcc/i686-w64-mingw32/8.1.0\libstdc++.a(cp-demangle.o)
                              C:/Program Files (x86)/mingw-w64/i686-8.1.0-win32-dwarf-rt_v6-rev0/mingw32/bin/../lib/gcc/i686-w64-mingw32/8.1.0\libstdc++.a(vterminate.o) (__cxa_demangle)
C:/Program Files (x86)/mingw-w64/i686-8.1.0-win32-dwarf-rt_v6-rev0/mingw32/bin/../lib/gcc/i686-w64-mingw32/8.1.0\libstdc++.a(del_op.o)
                              C:/Program Files (x86)/mingw-w64/i686-8.1.0-win32-dwarf-rt_v6-rev0/mingw32/bin/../lib/gcc/i686-w64-mingw32/8.1.0\libstdc++.a(del_ops.o) (operator delete(void*))
C:/Program Files (x86)/mingw-w64/i686-8.1.0-win32-dwarf-rt_v6-rev0/mingw32/bin/../lib/gcc/i686-w64-mingw32/8.1.0\libstdc++.a(eh_call.o)
                              C:/Program Files (x86)/mingw-w64/i686-8.1.0-win32-dwarf-rt_v6-rev0/mingw32/bin/../lib/gcc/i686-w64-mingw32/8.1.0\libstdc++.a(eh_personality.o) (__cxa_call_terminate)
C:/Program Files (x86)/mingw-w64/i686-8.1.0-win32-dwarf-rt_v6-rev0/mingw32/bin/../lib/gcc/i686-w64-mingw32/8.1.0\libstdc++.a(eh_type.o)
                              C:/Program Files (x86)/mingw-w64/i686-8.1.0-win32-dwarf-rt_v6-rev0/mingw32/bin/../lib/gcc/i686-w64-mingw32/8.1.0\libstdc++.a(vterminate.o) (__cxa_current_exception_type)
C:/Program Files (x86)/mingw-w64/i686-8.1.0-win32-dwarf-rt_v6-rev0/mingw32/bin/../lib/gcc/i686-w64-mingw32/8.1.0\libstdc++.a(new_handler.o)
                              C:/Program Files (x86)/mingw-w64/i686-8.1.0-win32-dwarf-rt_v6-rev0/mingw32/bin/../lib/gcc/i686-w64-mingw32/8.1.0\libstdc++.a(new_op.o) (std::get_new_handler())
C:/Program Files (x86)/mingw-w64/i686-8.1.0-win32-dwarf-rt_v6-rev0/mingw32/bin/../lib/gcc/i686-w64-mingw32/8.1.0/../../../../i686-w64-mingw32/lib/../lib\libkernel32.a(dgzcs01243.o)
                              elfhlp.o (_imp__VirtualProtect@16)
C:/Program Files (x86)/mingw-w64/i686-8.1.0-win32-dwarf-rt_v6-rev0/mingw32/bin/../lib/gcc/i686-w64-mingw32/8.1.0/../../../../i686-w64-mingw32/lib/../lib\libkernel32.a(dgzcs01239.o)
                              main.o (_imp__VirtualFree@12)
C:/Program Files (x86)/mingw-w64/i686-8.1.0-win32-dwarf-rt_v6-rev0/mingw32/bin/../lib/gcc/i686-w64-mingw32/8.1.0/../../../../i686-w64-mingw32/lib/../lib\libkernel32.a(dgzcs01233.o)
                              main.o (_imp__VirtualAlloc@16)
C:/Program Files (x86)/mingw-w64/i686-8.1.0-win32-dwarf-rt_v6-rev0/mingw32/bin/../lib/gcc/i686-w64-mingw32/8.1.0/../../../../i686-w64-mingw32/lib/../lib\libkernel32.a(dgzcs01176.o)
                              C:/Program Files (x86)/mingw-w64/i686-8.1.0-win32-dwarf-rt_v6-rev0/mingw32/bin/../lib/gcc/i686-w64-mingw32/8.1.0/../../../../i686-w64-mingw32/lib/../lib/dllcrt2.o (_imp__Sleep@4)
C:/Program Files (x86)/mingw-w64/i686-8.1.0-win32-dwarf-rt_v6-rev0/mingw32/bin/../lib/gcc/i686-w64-mingw32/8.1.0/../../../../i686-w64-mingw32/lib/../lib\libkernel32.a(dgzcs00839.o)
                              C:/Program Files (x86)/mingw-w64/i686-8.1.0-win32-dwarf-rt_v6-rev0/mingw32/bin/../lib/gcc/i686-w64-mingw32/8.1.0/crtbegin.o (_imp__LoadLibraryA@4)
C:/Program Files (x86)/mingw-w64/i686-8.1.0-win32-dwarf-rt_v6-rev0/mingw32/bin/../lib/gcc/i686-w64-mingw32/8.1.0/../../../../i686-w64-mingw32/lib/../lib\libkernel32.a(dgzcs00584.o)
                              C:/Program Files (x86)/mingw-w64/i686-8.1.0-win32-dwarf-rt_v6-rev0/mingw32/bin/../lib/gcc/i686-w64-mingw32/8.1.0/crtbegin.o (_imp__GetProcAddress@8)
C:/Program Files (x86)/mingw-w64/i686-8.1.0-win32-dwarf-rt_v6-rev0/mingw32/bin/../lib/gcc/i686-w64-mingw32/8.1.0/../../../../i686-w64-mingw32/lib/../lib\libkernel32.a(dgzcs00536.o)
                              C:/Program Files (x86)/mingw-w64/i686-8.1.0-win32-dwarf-rt_v6-rev0/mingw32/bin/../lib/gcc/i686-w64-mingw32/8.1.0/crtbegin.o (_imp__GetModuleHandleA@4)
C:/Program Files (x86)/mingw-w64/i686-8.1.0-win32-dwarf-rt_v6-rev0/mingw32/bin/../lib/gcc/i686-w64-mingw32/8.1.0/../../../../i686-w64-mingw32/lib/../lib\libkernel32.a(dgzcs00535.o)
                              checksumengine.o (_imp__GetModuleFileNameW@12)
C:/Program Files (x86)/mingw-w64/i686-8.1.0-win32-dwarf-rt_v6-rev0/mingw32/bin/../lib/gcc/i686-w64-mingw32/8.1.0/../../../../i686-w64-mingw32/lib/../lib\libkernel32.a(dgzcs00359.o)
                              C:/Program Files (x86)/mingw-w64/i686-8.1.0-win32-dwarf-rt_v6-rev0/mingw32/bin/../lib/gcc/i686-w64-mingw32/8.1.0/crtbegin.o (_imp__FreeLibrary@4)
C:/Program Files (x86)/mingw-w64/i686-8.1.0-win32-dwarf-rt_v6-rev0/mingw32/bin/../lib/gcc/i686-w64-mingw32/8.1.0/../../../../i686-w64-mingw32/lib/../lib\libkernel32.a(dgzch.o)
                              C:/Program Files (x86)/mingw-w64/i686-8.1.0-win32-dwarf-rt_v6-rev0/mingw32/bin/../lib/gcc/i686-w64-mingw32/8.1.0/../../../../i686-w64-mingw32/lib/../lib\libkernel32.a(dgzcs01243.o) (_head_lib32_libkernel32_a)
C:/Program Files (x86)/mingw-w64/i686-8.1.0-win32-dwarf-rt_v6-rev0/mingw32/bin/../lib/gcc/i686-w64-mingw32/8.1.0/../../../../i686-w64-mingw32/lib/../lib\libkernel32.a(dgzct.o)
                              C:/Program Files (x86)/mingw-w64/i686-8.1.0-win32-dwarf-rt_v6-rev0/mingw32/bin/../lib/gcc/i686-w64-mingw32/8.1.0/../../../../i686-w64-mingw32/lib/../lib\libkernel32.a(dgzch.o) (_lib32_libkernel32_a_iname)
C:/Program Files (x86)/mingw-w64/i686-8.1.0-win32-dwarf-rt_v6-rev0/mingw32/bin/../lib/gcc/i686-w64-mingw32/8.1.0/../../../../i686-w64-mingw32/lib/../lib\libmingw32.a(lib32_libmingw32_a-gccmain.o)
                              C:/Program Files (x86)/mingw-w64/i686-8.1.0-win32-dwarf-rt_v6-rev0/mingw32/bin/../lib/gcc/i686-w64-mingw32/8.1.0/../../../../i686-w64-mingw32/lib/../lib/dllcrt2.o (__main)
C:/Program Files (x86)/mingw-w64/i686-8.1.0-win32-dwarf-rt_v6-rev0/mingw32/bin/../lib/gcc/i686-w64-mingw32/8.1.0/../../../../i686-w64-mingw32/lib/../lib\libmingw32.a(lib32_libmingw32_a-natstart.o)
                              C:/Program Files (x86)/mingw-w64/i686-8.1.0-win32-dwarf-rt_v6-rev0/mingw32/bin/../lib/gcc/i686-w64-mingw32/8.1.0/../../../../i686-w64-mingw32/lib/../lib/dllcrt2.o (__native_startup_lock)
C:/Program Files (x86)/mingw-w64/i686-8.1.0-win32-dwarf-rt_v6-rev0/mingw32/bin/../lib/gcc/i686-w64-mingw32/8.1.0/../../../../i686-w64-mingw32/lib/../lib\libmingw32.a(lib32_libmingw32_a-gs_support.o)
                              C:/Program Files (x86)/mingw-w64/i686-8.1.0-win32-dwarf-rt_v6-rev0/mingw32/bin/../lib/gcc/i686-w64-mingw32/8.1.0/../../../../i686-w64-mingw32/lib/../lib/dllcrt2.o (__security_init_cookie)
C:/Program Files (x86)/mingw-w64/i686-8.1.0-win32-dwarf-rt_v6-rev0/mingw32/bin/../lib/gcc/i686-w64-mingw32/8.1.0/../../../../i686-w64-mingw32/lib/../lib\libmingw32.a(lib32_libmingw32_a-tlssup.o)
                              C:/Program Files (x86)/mingw-w64/i686-8.1.0-win32-dwarf-rt_v6-rev0/mingw32/bin/../lib/gcc/i686-w64-mingw32/8.1.0/../../../../i686-w64-mingw32/lib/../lib/dllcrt2.o (__dyn_tls_init_callback)
C:/Program Files (x86)/mingw-w64/i686-8.1.0-win32-dwarf-rt_v6-rev0/mingw32/bin/../lib/gcc/i686-w64-mingw32/8.1.0/../../../../i686-w64-mingw32/lib/../lib\libmingw32.a(lib32_libmingw32_a-cinitexe.o)
                              C:/Program Files (x86)/mingw-w64/i686-8.1.0-win32-dwarf-rt_v6-rev0/mingw32/bin/../lib/gcc/i686-w64-mingw32/8.1.0/../../../../i686-w64-mingw32/lib/../lib/dllcrt2.o (__xc_z)
C:/Program Files (x86)/mingw-w64/i686-8.1.0-win32-dwarf-rt_v6-rev0/mingw32/bin/../lib/gcc/i686-w64-mingw32/8.1.0/../../../../i686-w64-mingw32/lib/../lib\libmingw32.a(lib32_libmingw32_a-mingw_helpers.o)
                              C:/Program Files (x86)/mingw-w64/i686-8.1.0-win32-dwarf-rt_v6-rev0/mingw32/bin/../lib/gcc/i686-w64-mingw32/8.1.0/../../../../i686-w64-mingw32/lib/../lib/dllcrt2.o (mingw_app_type)
C:/Program Files (x86)/mingw-w64/i686-8.1.0-win32-dwarf-rt_v6-rev0/mingw32/bin/../lib/gcc/i686-w64-mingw32/8.1.0/../../../../i686-w64-mingw32/lib/../lib\libmingw32.a(lib32_libmingw32_a-pseudo-reloc.o)
                              C:/Program Files (x86)/mingw-w64/i686-8.1.0-win32-dwarf-rt_v6-rev0/mingw32/bin/../lib/gcc/i686-w64-mingw32/8.1.0/../../../../i686-w64-mingw32/lib/../lib/dllcrt2.o (_pei386_runtime_relocator)
C:/Program Files (x86)/mingw-w64/i686-8.1.0-win32-dwarf-rt_v6-rev0/mingw32/bin/../lib/gcc/i686-w64-mingw32/8.1.0/../../../../i686-w64-mingw32/lib/../lib\libmingw32.a(lib32_libmingw32_a-tlsthrd.o)
                              C:/Program Files (x86)/mingw-w64/i686-8.1.0-win32-dwarf-rt_v6-rev0/mingw32/bin/../lib/gcc/i686-w64-mingw32/8.1.0/../../../../i686-w64-mingw32/lib/../lib\libmingw32.a(lib32_libmingw32_a-tlssup.o) (__mingw_TLScallback)
C:/Program Files (x86)/mingw-w64/i686-8.1.0-win32-dwarf-rt_v6-rev0/mingw32/bin/../lib/gcc/i686-w64-mingw32/8.1.0/../../../../i686-w64-mingw32/lib/../lib\libmingw32.a(lib32_libmingw32_a-tlsmcrt.o)
                              C:/Program Files (x86)/mingw-w64/i686-8.1.0-win32-dwarf-rt_v6-rev0/mingw32/bin/../lib/gcc/i686-w64-mingw32/8.1.0\libstdc++.a(eh_alloc.o) (_CRT_MT)
C:/Program Files (x86)/mingw-w64/i686-8.1.0-win32-dwarf-rt_v6-rev0/mingw32/bin/../lib/gcc/i686-w64-mingw32/8.1.0/../../../../i686-w64-mingw32/lib/../lib\libmingw32.a(lib32_libmingw32_a-pseudo-reloc-list.o)
                              C:/Program Files (x86)/mingw-w64/i686-8.1.0-win32-dwarf-rt_v6-rev0/mingw32/bin/../lib/gcc/i686-w64-mingw32/8.1.0/../../../../i686-w64-mingw32/lib/../lib\libmingw32.a(lib32_libmingw32_a-pseudo-reloc.o) (__RUNTIME_PSEUDO_RELOC_LIST__)
C:/Program Files (x86)/mingw-w64/i686-8.1.0-win32-dwarf-rt_v6-rev0/mingw32/bin/../lib/gcc/i686-w64-mingw32/8.1.0/../../../../i686-w64-mingw32/lib/../lib\libmingw32.a(lib32_libmingw32_a-pesect.o)
                              C:/Program Files (x86)/mingw-w64/i686-8.1.0-win32-dwarf-rt_v6-rev0/mingw32/bin/../lib/gcc/i686-w64-mingw32/8.1.0/../../../../i686-w64-mingw32/lib/../lib\libmingw32.a(lib32_libmingw32_a-pseudo-reloc.o) (__mingw_GetSectionForAddress)
C:/Program Files (x86)/mingw-w64/i686-8.1.0-win32-dwarf-rt_v6-rev0/mingw32/bin/../lib/gcc/i686-w64-mingw32/8.1.0/../../../../i686-w64-mingw32/lib/../lib\libmingw32.a(lib32_libmingw32_a-CRT_fp10.o)
                              C:/Program Files (x86)/mingw-w64/i686-8.1.0-win32-dwarf-rt_v6-rev0/mingw32/bin/../lib/gcc/i686-w64-mingw32/8.1.0/../../../../i686-w64-mingw32/lib/../lib\libmingw32.a(lib32_libmingw32_a-tlsthrd.o) (_fpreset)
C:/Program Files (x86)/mingw-w64/i686-8.1.0-win32-dwarf-rt_v6-rev0/mingw32/bin/../lib/gcc/i686-w64-mingw32/8.1.0\libgcc.a(_chkstk_ms.o)
                              rsa_verify.o (__chkstk_ms)
C:/Program Files (x86)/mingw-w64/i686-8.1.0-win32-dwarf-rt_v6-rev0/mingw32/bin/../lib/gcc/i686-w64-mingw32/8.1.0\libgcc.a(_ctors.o)
                              C:/Program Files (x86)/mingw-w64/i686-8.1.0-win32-dwarf-rt_v6-rev0/mingw32/bin/../lib/gcc/i686-w64-mingw32/8.1.0/../../../../i686-w64-mingw32/lib/../lib\libmingw32.a(lib32_libmingw32_a-gccmain.o) (__DTOR_LIST__)
C:/Program Files (x86)/mingw-w64/i686-8.1.0-win32-dwarf-rt_v6-rev0/mingw32/bin/../lib/gcc/i686-w64-mingw32/8.1.0\libgcc.a(_udivdi3.o)
                              .\libtomcrypt.a(bn_mp_div.o) (__udivdi3)
C:/Program Files (x86)/mingw-w64/i686-8.1.0-win32-dwarf-rt_v6-rev0/mingw32/bin/../lib/gcc/i686-w64-mingw32/8.1.0\libgcc.a(gthr-win32.o)
                              C:/Program Files (x86)/mingw-w64/i686-8.1.0-win32-dwarf-rt_v6-rev0/mingw32/bin/../lib/gcc/i686-w64-mingw32/8.1.0\libstdc++.a(eh_alloc.o) (__gthr_win32_mutex_init_function)
C:/Program Files (x86)/mingw-w64/i686-8.1.0-win32-dwarf-rt_v6-rev0/mingw32/bin/../lib/gcc/i686-w64-mingw32/8.1.0\libgcc_eh.a(unwind-dw2.o)
                              C:/Program Files (x86)/mingw-w64/i686-8.1.0-win32-dwarf-rt_v6-rev0/mingw32/bin/../lib/gcc/i686-w64-mingw32/8.1.0\libstdc++.a(eh_personality.o) (_Unwind_SetGR)
C:/Program Files (x86)/mingw-w64/i686-8.1.0-win32-dwarf-rt_v6-rev0/mingw32/bin/../lib/gcc/i686-w64-mingw32/8.1.0\libgcc_eh.a(unwind-dw2-fde.o)
                              C:/Program Files (x86)/mingw-w64/i686-8.1.0-win32-dwarf-rt_v6-rev0/mingw32/bin/../lib/gcc/i686-w64-mingw32/8.1.0\libgcc_eh.a(unwind-dw2.o) (_Unwind_Find_FDE)
C:/Program Files (x86)/mingw-w64/i686-8.1.0-win32-dwarf-rt_v6-rev0/mingw32/bin/../lib/gcc/i686-w64-mingw32/8.1.0\libgcc_eh.a(emutls.o)
                              C:/Program Files (x86)/mingw-w64/i686-8.1.0-win32-dwarf-rt_v6-rev0/mingw32/bin/../lib/gcc/i686-w64-mingw32/8.1.0\libstdc++.a(eh_globals.o) (__emutls_get_address)
C:/Program Files (x86)/mingw-w64/i686-8.1.0-win32-dwarf-rt_v6-rev0/mingw32/bin/../lib/gcc/i686-w64-mingw32/8.1.0/../../../../i686-w64-mingw32/lib/../lib\libmingwex.a(lib32_libmingwex_a-dllentry.o)
                              C:/Program Files (x86)/mingw-w64/i686-8.1.0-win32-dwarf-rt_v6-rev0/mingw32/bin/../lib/gcc/i686-w64-mingw32/8.1.0/../../../../i686-w64-mingw32/lib/../lib/dllcrt2.o (DllEntryPoint@12)
C:/Program Files (x86)/mingw-w64/i686-8.1.0-win32-dwarf-rt_v6-rev0/mingw32/bin/../lib/gcc/i686-w64-mingw32/8.1.0/../../../../i686-w64-mingw32/lib/../lib\libmingwex.a(lib32_libmingwex_a-dllmain.o)
                              C:/Program Files (x86)/mingw-w64/i686-8.1.0-win32-dwarf-rt_v6-rev0/mingw32/bin/../lib/gcc/i686-w64-mingw32/8.1.0/../../../../i686-w64-mingw32/lib/../lib/dllcrt2.o (DllMain@12)
C:/Program Files (x86)/mingw-w64/i686-8.1.0-win32-dwarf-rt_v6-rev0/mingw32/bin/../lib/gcc/i686-w64-mingw32/8.1.0/../../../../i686-w64-mingw32/lib/../lib\libmingwex.a(lib32_libmingwex_a-wassert.o)
                              rsa_verify.o (_assert)
C:/Program Files (x86)/mingw-w64/i686-8.1.0-win32-dwarf-rt_v6-rev0/mingw32/bin/../lib/gcc/i686-w64-mingw32/8.1.0/../../../../i686-w64-mingw32/lib/../lib\libmingwex.a(lib32_libmingwex_a-mingw_vsnprintf.o)
                              main.o (__mingw_vsnprintf)
C:/Program Files (x86)/mingw-w64/i686-8.1.0-win32-dwarf-rt_v6-rev0/mingw32/bin/../lib/gcc/i686-w64-mingw32/8.1.0/../../../../i686-w64-mingw32/lib/../lib\libmingwex.a(lib32_libmingwex_a-mingw_vsprintf.o)
                              rsa_verify.o (__mingw_vsprintf)
C:/Program Files (x86)/mingw-w64/i686-8.1.0-win32-dwarf-rt_v6-rev0/mingw32/bin/../lib/gcc/i686-w64-mingw32/8.1.0/../../../../i686-w64-mingw32/lib/../lib\libmingwex.a(lib32_libmingwex_a-vsnprintf.o)
                              basic.o (__ms_vsnprintf)
C:/Program Files (x86)/mingw-w64/i686-8.1.0-win32-dwarf-rt_v6-rev0/mingw32/bin/../lib/gcc/i686-w64-mingw32/8.1.0/../../../../i686-w64-mingw32/lib/../lib\libmingwex.a(lib32_libmingwex_a-mingw_pformat.o)
                              C:/Program Files (x86)/mingw-w64/i686-8.1.0-win32-dwarf-rt_v6-rev0/mingw32/bin/../lib/gcc/i686-w64-mingw32/8.1.0/../../../../i686-w64-mingw32/lib/../lib\libmingwex.a(lib32_libmingwex_a-mingw_vsnprintf.o) (__mingw_pformat)
C:/Program Files (x86)/mingw-w64/i686-8.1.0-win32-dwarf-rt_v6-rev0/mingw32/bin/../lib/gcc/i686-w64-mingw32/8.1.0/../../../../i686-w64-mingw32/lib/../lib\libmingwex.a(lib32_libmingwex_a-dmisc.o)
                              C:/Program Files (x86)/mingw-w64/i686-8.1.0-win32-dwarf-rt_v6-rev0/mingw32/bin/../lib/gcc/i686-w64-mingw32/8.1.0/../../../../i686-w64-mingw32/lib/../lib\libmingwex.a(lib32_libmingwex_a-mingw_pformat.o) (__freedtoa)
C:/Program Files (x86)/mingw-w64/i686-8.1.0-win32-dwarf-rt_v6-rev0/mingw32/bin/../lib/gcc/i686-w64-mingw32/8.1.0/../../../../i686-w64-mingw32/lib/../lib\libmingwex.a(lib32_libmingwex_a-gdtoa.o)
                              C:/Program Files (x86)/mingw-w64/i686-8.1.0-win32-dwarf-rt_v6-rev0/mingw32/bin/../lib/gcc/i686-w64-mingw32/8.1.0/../../../../i686-w64-mingw32/lib/../lib\libmingwex.a(lib32_libmingwex_a-mingw_pformat.o) (__gdtoa)
C:/Program Files (x86)/mingw-w64/i686-8.1.0-win32-dwarf-rt_v6-rev0/mingw32/bin/../lib/gcc/i686-w64-mingw32/8.1.0/../../../../i686-w64-mingw32/lib/../lib\libmingwex.a(lib32_libmingwex_a-gmisc.o)
                              C:/Program Files (x86)/mingw-w64/i686-8.1.0-win32-dwarf-rt_v6-rev0/mingw32/bin/../lib/gcc/i686-w64-mingw32/8.1.0/../../../../i686-w64-mingw32/lib/../lib\libmingwex.a(lib32_libmingwex_a-gdtoa.o) (__rshift_D2A)
C:/Program Files (x86)/mingw-w64/i686-8.1.0-win32-dwarf-rt_v6-rev0/mingw32/bin/../lib/gcc/i686-w64-mingw32/8.1.0/../../../../i686-w64-mingw32/lib/../lib\libmingwex.a(lib32_libmingwex_a-misc.o)
                              C:/Program Files (x86)/mingw-w64/i686-8.1.0-win32-dwarf-rt_v6-rev0/mingw32/bin/../lib/gcc/i686-w64-mingw32/8.1.0/../../../../i686-w64-mingw32/lib/../lib\libmingwex.a(lib32_libmingwex_a-dmisc.o) (__Balloc_D2A)
C:/Program Files (x86)/mingw-w64/i686-8.1.0-win32-dwarf-rt_v6-rev0/mingw32/bin/../lib/gcc/i686-w64-mingw32/8.1.0/../../../../i686-w64-mingw32/lib/../lib\libmingwex.a(lib32_libmingwex_a-mbrtowc.o)
                              C:/Program Files (x86)/mingw-w64/i686-8.1.0-win32-dwarf-rt_v6-rev0/mingw32/bin/../lib/gcc/i686-w64-mingw32/8.1.0/../../../../i686-w64-mingw32/lib/../lib\libmingwex.a(lib32_libmingwex_a-mingw_pformat.o) (mbrtowc)
C:/Program Files (x86)/mingw-w64/i686-8.1.0-win32-dwarf-rt_v6-rev0/mingw32/bin/../lib/gcc/i686-w64-mingw32/8.1.0/../../../../i686-w64-mingw32/lib/../lib\libmingwex.a(lib32_libmingwex_a-strnlen.o)
                              C:/Program Files (x86)/mingw-w64/i686-8.1.0-win32-dwarf-rt_v6-rev0/mingw32/bin/../lib/gcc/i686-w64-mingw32/8.1.0/../../../../i686-w64-mingw32/lib/../lib\libmingwex.a(lib32_libmingwex_a-mingw_pformat.o) (strnlen)
C:/Program Files (x86)/mingw-w64/i686-8.1.0-win32-dwarf-rt_v6-rev0/mingw32/bin/../lib/gcc/i686-w64-mingw32/8.1.0/../../../../i686-w64-mingw32/lib/../lib\libmingwex.a(lib32_libmingwex_a-wcrtomb.o)
                              C:/Program Files (x86)/mingw-w64/i686-8.1.0-win32-dwarf-rt_v6-rev0/mingw32/bin/../lib/gcc/i686-w64-mingw32/8.1.0/../../../../i686-w64-mingw32/lib/../lib\libmingwex.a(lib32_libmingwex_a-mingw_pformat.o) (wcrtomb)
C:/Program Files (x86)/mingw-w64/i686-8.1.0-win32-dwarf-rt_v6-rev0/mingw32/bin/../lib/gcc/i686-w64-mingw32/8.1.0/../../../../i686-w64-mingw32/lib/../lib\libmingwex.a(lib32_libmingwex_a-wcsnlen.o)
                              C:/Program Files (x86)/mingw-w64/i686-8.1.0-win32-dwarf-rt_v6-rev0/mingw32/bin/../lib/gcc/i686-w64-mingw32/8.1.0/../../../../i686-w64-mingw32/lib/../lib\libmingwex.a(lib32_libmingwex_a-mingw_pformat.o) (wcsnlen)
C:/Program Files (x86)/mingw-w64/i686-8.1.0-win32-dwarf-rt_v6-rev0/mingw32/bin/../lib/gcc/i686-w64-mingw32/8.1.0/../../../../i686-w64-mingw32/lib/../lib\libmsvcr100.a(dwnfs01726.o)
                              C:/Program Files (x86)/mingw-w64/i686-8.1.0-win32-dwarf-rt_v6-rev0/mingw32/bin/../lib/gcc/i686-w64-mingw32/8.1.0/../../../../i686-w64-mingw32/lib/../lib\libmingwex.a(lib32_libmingwex_a-mingw_pformat.o) (wcslen)
C:/Program Files (x86)/mingw-w64/i686-8.1.0-win32-dwarf-rt_v6-rev0/mingw32/bin/../lib/gcc/i686-w64-mingw32/8.1.0/../../../../i686-w64-mingw32/lib/../lib\libmsvcr100.a(dwnfs01722.o)
                              C:/Program Files (x86)/mingw-w64/i686-8.1.0-win32-dwarf-rt_v6-rev0/mingw32/bin/../lib/gcc/i686-w64-mingw32/8.1.0/../../../../i686-w64-mingw32/lib/../lib\libmingwex.a(lib32_libmingwex_a-wassert.o) (wcscpy)
C:/Program Files (x86)/mingw-w64/i686-8.1.0-win32-dwarf-rt_v6-rev0/mingw32/bin/../lib/gcc/i686-w64-mingw32/8.1.0/../../../../i686-w64-mingw32/lib/../lib\libmsvcr100.a(dwnfs01704.o)
                              C:/Program Files (x86)/mingw-w64/i686-8.1.0-win32-dwarf-rt_v6-rev0/mingw32/bin/../lib/gcc/i686-w64-mingw32/8.1.0/../../../../i686-w64-mingw32/lib/../lib\libmingw32.a(lib32_libmingw32_a-pseudo-reloc.o) (vfprintf)
C:/Program Files (x86)/mingw-w64/i686-8.1.0-win32-dwarf-rt_v6-rev0/mingw32/bin/../lib/gcc/i686-w64-mingw32/8.1.0/../../../../i686-w64-mingw32/lib/../lib\libmsvcr100.a(dwnfs01699.o)
                              .\libtomcrypt.a(bn_mp_read_radix.o) (toupper)
C:/Program Files (x86)/mingw-w64/i686-8.1.0-win32-dwarf-rt_v6-rev0/mingw32/bin/../lib/gcc/i686-w64-mingw32/8.1.0/../../../../i686-w64-mingw32/lib/../lib\libmsvcr100.a(dwnfs01681.o)
                              rsa_verify.o (strstr)
C:/Program Files (x86)/mingw-w64/i686-8.1.0-win32-dwarf-rt_v6-rev0/mingw32/bin/../lib/gcc/i686-w64-mingw32/8.1.0/../../../../i686-w64-mingw32/lib/../lib\libmsvcr100.a(dwnfs01675.o)
                              checksumengine.o (strncpy)
C:/Program Files (x86)/mingw-w64/i686-8.1.0-win32-dwarf-rt_v6-rev0/mingw32/bin/../lib/gcc/i686-w64-mingw32/8.1.0/../../../../i686-w64-mingw32/lib/../lib\libmsvcr100.a(dwnfs01674.o)
                              C:/Program Files (x86)/mingw-w64/i686-8.1.0-win32-dwarf-rt_v6-rev0/mingw32/bin/../lib/gcc/i686-w64-mingw32/8.1.0\libstdc++.a(cp-demangle.o) (strncmp)
C:/Program Files (x86)/mingw-w64/i686-8.1.0-win32-dwarf-rt_v6-rev0/mingw32/bin/../lib/gcc/i686-w64-mingw32/8.1.0/../../../../i686-w64-mingw32/lib/../lib\libmsvcr100.a(dwnfs01671.o)
                              rsa_verify.o (strlen)
C:/Program Files (x86)/mingw-w64/i686-8.1.0-win32-dwarf-rt_v6-rev0/mingw32/bin/../lib/gcc/i686-w64-mingw32/8.1.0/../../../../i686-w64-mingw32/lib/../lib\libmsvcr100.a(dwnfs01668.o)
                              C:/Program Files (x86)/mingw-w64/i686-8.1.0-win32-dwarf-rt_v6-rev0/mingw32/bin/../lib/gcc/i686-w64-mingw32/8.1.0/../../../../i686-w64-mingw32/lib/../lib\libmingwex.a(lib32_libmingwex_a-mingw_pformat.o) (strerror)
C:/Program Files (x86)/mingw-w64/i686-8.1.0-win32-dwarf-rt_v6-rev0/mingw32/bin/../lib/gcc/i686-w64-mingw32/8.1.0/../../../../i686-w64-mingw32/lib/../lib\libmsvcr100.a(dwnfs01665.o)
                              checksumengine.o (strcpy)
C:/Program Files (x86)/mingw-w64/i686-8.1.0-win32-dwarf-rt_v6-rev0/mingw32/bin/../lib/gcc/i686-w64-mingw32/8.1.0/../../../../i686-w64-mingw32/lib/../lib\libmsvcr100.a(dwnfs01663.o)
                              pehlp.o (strcmp)
C:/Program Files (x86)/mingw-w64/i686-8.1.0-win32-dwarf-rt_v6-rev0/mingw32/bin/../lib/gcc/i686-w64-mingw32/8.1.0/../../../../i686-w64-mingw32/lib/../lib\libmsvcr100.a(dwnfs01654.o)
                              checksumengine.o (sprintf)
C:/Program Files (x86)/mingw-w64/i686-8.1.0-win32-dwarf-rt_v6-rev0/mingw32/bin/../lib/gcc/i686-w64-mingw32/8.1.0/../../../../i686-w64-mingw32/lib/../lib\libmsvcr100.a(dwnfs01645.o)
                              basic.o (rewind)
C:/Program Files (x86)/mingw-w64/i686-8.1.0-win32-dwarf-rt_v6-rev0/mingw32/bin/../lib/gcc/i686-w64-mingw32/8.1.0/../../../../i686-w64-mingw32/lib/../lib\libmsvcr100.a(dwnfs01642.o)
                              .\libtomcrypt.a(bn_mp_grow.o) (realloc)
C:/Program Files (x86)/mingw-w64/i686-8.1.0-win32-dwarf-rt_v6-rev0/mingw32/bin/../lib/gcc/i686-w64-mingw32/8.1.0/../../../../i686-w64-mingw32/lib/../lib\libmsvcr100.a(dwnfs01639.o)
                              C:/Program Files (x86)/mingw-w64/i686-8.1.0-win32-dwarf-rt_v6-rev0/mingw32/bin/../lib/gcc/i686-w64-mingw32/8.1.0/../../../../i686-w64-mingw32/lib/../lib\libmingwex.a(lib32_libmingwex_a-wassert.o) (raise)
C:/Program Files (x86)/mingw-w64/i686-8.1.0-win32-dwarf-rt_v6-rev0/mingw32/bin/../lib/gcc/i686-w64-mingw32/8.1.0/../../../../i686-w64-mingw32/lib/../lib\libmsvcr100.a(dwnfs01626.o)
                              checksumengine.o (memset)
C:/Program Files (x86)/mingw-w64/i686-8.1.0-win32-dwarf-rt_v6-rev0/mingw32/bin/../lib/gcc/i686-w64-mingw32/8.1.0/../../../../i686-w64-mingw32/lib/../lib\libmsvcr100.a(dwnfs01622.o)
                              rc5_32.o (memcpy)
C:/Program Files (x86)/mingw-w64/i686-8.1.0-win32-dwarf-rt_v6-rev0/mingw32/bin/../lib/gcc/i686-w64-mingw32/8.1.0/../../../../i686-w64-mingw32/lib/../lib\libmsvcr100.a(dwnfs01621.o)
                              checksumengine.o (memcmp)
C:/Program Files (x86)/mingw-w64/i686-8.1.0-win32-dwarf-rt_v6-rev0/mingw32/bin/../lib/gcc/i686-w64-mingw32/8.1.0/../../../../i686-w64-mingw32/lib/../lib\libmsvcr100.a(dwnfs01611.o)
                              basic.o (malloc)
C:/Program Files (x86)/mingw-w64/i686-8.1.0-win32-dwarf-rt_v6-rev0/mingw32/bin/../lib/gcc/i686-w64-mingw32/8.1.0/../../../../i686-w64-mingw32/lib/../lib\libmsvcr100.a(dwnfs01607.o)
                              C:/Program Files (x86)/mingw-w64/i686-8.1.0-win32-dwarf-rt_v6-rev0/mingw32/bin/../lib/gcc/i686-w64-mingw32/8.1.0/../../../../i686-w64-mingw32/lib/../lib\libmingwex.a(lib32_libmingwex_a-mingw_pformat.o) (localeconv)
C:/Program Files (x86)/mingw-w64/i686-8.1.0-win32-dwarf-rt_v6-rev0/mingw32/bin/../lib/gcc/i686-w64-mingw32/8.1.0/../../../../i686-w64-mingw32/lib/../lib\libmsvcr100.a(dwnfs01565.o)
                              C:/Program Files (x86)/mingw-w64/i686-8.1.0-win32-dwarf-rt_v6-rev0/mingw32/bin/../lib/gcc/i686-w64-mingw32/8.1.0\libstdc++.a(vterminate.o) (fwrite)
C:/Program Files (x86)/mingw-w64/i686-8.1.0-win32-dwarf-rt_v6-rev0/mingw32/bin/../lib/gcc/i686-w64-mingw32/8.1.0/../../../../i686-w64-mingw32/lib/../lib\libmsvcr100.a(dwnfs01563.o)
                              C:/Program Files (x86)/mingw-w64/i686-8.1.0-win32-dwarf-rt_v6-rev0/mingw32/bin/../lib/gcc/i686-w64-mingw32/8.1.0/../../../../i686-w64-mingw32/lib/../lib\libmingwex.a(lib32_libmingwex_a-wassert.o) (fwprintf)
C:/Program Files (x86)/mingw-w64/i686-8.1.0-win32-dwarf-rt_v6-rev0/mingw32/bin/../lib/gcc/i686-w64-mingw32/8.1.0/../../../../i686-w64-mingw32/lib/../lib\libmsvcr100.a(dwnfs01560.o)
                              basic.o (ftell)
C:/Program Files (x86)/mingw-w64/i686-8.1.0-win32-dwarf-rt_v6-rev0/mingw32/bin/../lib/gcc/i686-w64-mingw32/8.1.0/../../../../i686-w64-mingw32/lib/../lib\libmsvcr100.a(dwnfs01558.o)
                              basic.o (fseek)
C:/Program Files (x86)/mingw-w64/i686-8.1.0-win32-dwarf-rt_v6-rev0/mingw32/bin/../lib/gcc/i686-w64-mingw32/8.1.0/../../../../i686-w64-mingw32/lib/../lib\libmsvcr100.a(dwnfs01553.o)
                              checksumengine.o (free)
C:/Program Files (x86)/mingw-w64/i686-8.1.0-win32-dwarf-rt_v6-rev0/mingw32/bin/../lib/gcc/i686-w64-mingw32/8.1.0/../../../../i686-w64-mingw32/lib/../lib\libmsvcr100.a(dwnfs01551.o)
                              basic.o (fread)
C:/Program Files (x86)/mingw-w64/i686-8.1.0-win32-dwarf-rt_v6-rev0/mingw32/bin/../lib/gcc/i686-w64-mingw32/8.1.0/../../../../i686-w64-mingw32/lib/../lib\libmsvcr100.a(dwnfs01548.o)
                              C:/Program Files (x86)/mingw-w64/i686-8.1.0-win32-dwarf-rt_v6-rev0/mingw32/bin/../lib/gcc/i686-w64-mingw32/8.1.0\libstdc++.a(vterminate.o) (fputs)
C:/Program Files (x86)/mingw-w64/i686-8.1.0-win32-dwarf-rt_v6-rev0/mingw32/bin/../lib/gcc/i686-w64-mingw32/8.1.0/../../../../i686-w64-mingw32/lib/../lib\libmsvcr100.a(dwnfs01547.o)
                              C:/Program Files (x86)/mingw-w64/i686-8.1.0-win32-dwarf-rt_v6-rev0/mingw32/bin/../lib/gcc/i686-w64-mingw32/8.1.0\libstdc++.a(vterminate.o) (fputc)
C:/Program Files (x86)/mingw-w64/i686-8.1.0-win32-dwarf-rt_v6-rev0/mingw32/bin/../lib/gcc/i686-w64-mingw32/8.1.0/../../../../i686-w64-mingw32/lib/../lib\libmsvcr100.a(dwnfs01545.o)
                              .\libtomcrypt.a(crypt_argchk.o) (fprintf)
C:/Program Files (x86)/mingw-w64/i686-8.1.0-win32-dwarf-rt_v6-rev0/mingw32/bin/../lib/gcc/i686-w64-mingw32/8.1.0/../../../../i686-w64-mingw32/lib/../lib\libmsvcr100.a(dwnfs01543.o)
                              basic.o (fopen)
C:/Program Files (x86)/mingw-w64/i686-8.1.0-win32-dwarf-rt_v6-rev0/mingw32/bin/../lib/gcc/i686-w64-mingw32/8.1.0/../../../../i686-w64-mingw32/lib/../lib\libmsvcr100.a(dwnfs01532.o)
                              basic.o (fclose)
C:/Program Files (x86)/mingw-w64/i686-8.1.0-win32-dwarf-rt_v6-rev0/mingw32/bin/../lib/gcc/i686-w64-mingw32/8.1.0/../../../../i686-w64-mingw32/lib/../lib\libmsvcr100.a(dwnfs01521.o)
                              .\libtomcrypt.a(ltm_desc.o) (calloc)
C:/Program Files (x86)/mingw-w64/i686-8.1.0-win32-dwarf-rt_v6-rev0/mingw32/bin/../lib/gcc/i686-w64-mingw32/8.1.0/../../../../i686-w64-mingw32/lib/../lib\libmsvcr100.a(dwnfs01516.o)
                              checksumengine.o (atoi)
C:/Program Files (x86)/mingw-w64/i686-8.1.0-win32-dwarf-rt_v6-rev0/mingw32/bin/../lib/gcc/i686-w64-mingw32/8.1.0/../../../../i686-w64-mingw32/lib/../lib\libmsvcr100.a(dwnfs01503.o)
                              C:/Program Files (x86)/mingw-w64/i686-8.1.0-win32-dwarf-rt_v6-rev0/mingw32/bin/../lib/gcc/i686-w64-mingw32/8.1.0\libstdc++.a(eh_personality.o) (abort)
C:/Program Files (x86)/mingw-w64/i686-8.1.0-win32-dwarf-rt_v6-rev0/mingw32/bin/../lib/gcc/i686-w64-mingw32/8.1.0/../../../../i686-w64-mingw32/lib/../lib\libmsvcr100.a(dwnfs01456.o)
                              C:/Program Files (x86)/mingw-w64/i686-8.1.0-win32-dwarf-rt_v6-rev0/mingw32/bin/../lib/gcc/i686-w64-mingw32/8.1.0\libstdc++.a(pure.o) (write)
C:/Program Files (x86)/mingw-w64/i686-8.1.0-win32-dwarf-rt_v6-rev0/mingw32/bin/../lib/gcc/i686-w64-mingw32/8.1.0/../../../../i686-w64-mingw32/lib/../lib\libmsvcr100.a(dwnfs01426.o)
                              basic.o (_imp___wfopen)
C:/Program Files (x86)/mingw-w64/i686-8.1.0-win32-dwarf-rt_v6-rev0/mingw32/bin/../lib/gcc/i686-w64-mingw32/8.1.0/../../../../i686-w64-mingw32/lib/../lib\libmsvcr100.a(dwnfs01314.o)
                              C:/Program Files (x86)/mingw-w64/i686-8.1.0-win32-dwarf-rt_v6-rev0/mingw32/bin/../lib/gcc/i686-w64-mingw32/8.1.0/../../../../i686-w64-mingw32/lib/../lib\libmingwex.a(lib32_libmingwex_a-vsnprintf.o) (_vsnprintf)
C:/Program Files (x86)/mingw-w64/i686-8.1.0-win32-dwarf-rt_v6-rev0/mingw32/bin/../lib/gcc/i686-w64-mingw32/8.1.0/../../../../i686-w64-mingw32/lib/../lib\libmsvcr100.a(dwnfs01179.o)
                              rsa_verify.o (stricmp)
C:/Program Files (x86)/mingw-w64/i686-8.1.0-win32-dwarf-rt_v6-rev0/mingw32/bin/../lib/gcc/i686-w64-mingw32/8.1.0/../../../../i686-w64-mingw32/lib/../lib\libmsvcr100.a(dwnfs01126.o)
                              C:/Program Files (x86)/mingw-w64/i686-8.1.0-win32-dwarf-rt_v6-rev0/mingw32/bin/../lib/gcc/i686-w64-mingw32/8.1.0/../../../../i686-w64-mingw32/lib/../lib\libmingwex.a(lib32_libmingwex_a-wassert.o) (_snwprintf)
C:/Program Files (x86)/mingw-w64/i686-8.1.0-win32-dwarf-rt_v6-rev0/mingw32/bin/../lib/gcc/i686-w64-mingw32/8.1.0/../../../../i686-w64-mingw32/lib/../lib\libmsvcr100.a(dwnfs00744.o)
                              .\libtomcrypt.a(crypt_argchk.o) (_imp___iob)
C:/Program Files (x86)/mingw-w64/i686-8.1.0-win32-dwarf-rt_v6-rev0/mingw32/bin/../lib/gcc/i686-w64-mingw32/8.1.0/../../../../i686-w64-mingw32/lib/../lib\libmsvcr100.a(dwnfs00735.o)
                              C:/Program Files (x86)/mingw-w64/i686-8.1.0-win32-dwarf-rt_v6-rev0/mingw32/bin/../lib/gcc/i686-w64-mingw32/8.1.0/../../../../i686-w64-mingw32/lib/../lib/dllcrt2.o (_initterm)
C:/Program Files (x86)/mingw-w64/i686-8.1.0-win32-dwarf-rt_v6-rev0/mingw32/bin/../lib/gcc/i686-w64-mingw32/8.1.0/../../../../i686-w64-mingw32/lib/../lib\libmsvcr100.a(dwnfs00576.o)
                              C:/Program Files (x86)/mingw-w64/i686-8.1.0-win32-dwarf-rt_v6-rev0/mingw32/bin/../lib/gcc/i686-w64-mingw32/8.1.0/../../../../i686-w64-mingw32/lib/../lib\libmingwex.a(lib32_libmingwex_a-wassert.o) (_exit)
C:/Program Files (x86)/mingw-w64/i686-8.1.0-win32-dwarf-rt_v6-rev0/mingw32/bin/../lib/gcc/i686-w64-mingw32/8.1.0/../../../../i686-w64-mingw32/lib/../lib\libmsvcr100.a(dwnfs00559.o)
                              C:/Program Files (x86)/mingw-w64/i686-8.1.0-win32-dwarf-rt_v6-rev0/mingw32/bin/../lib/gcc/i686-w64-mingw32/8.1.0/../../../../i686-w64-mingw32/lib/../lib\libmingwex.a(lib32_libmingwex_a-mingw_pformat.o) (_errno)
C:/Program Files (x86)/mingw-w64/i686-8.1.0-win32-dwarf-rt_v6-rev0/mingw32/bin/../lib/gcc/i686-w64-mingw32/8.1.0/../../../../i686-w64-mingw32/lib/../lib\libmsvcr100.a(dwnfs00457.o)
                              C:/Program Files (x86)/mingw-w64/i686-8.1.0-win32-dwarf-rt_v6-rev0/mingw32/bin/../lib/gcc/i686-w64-mingw32/8.1.0/../../../../i686-w64-mingw32/lib/../lib/dllcrt2.o (_amsg_exit)
C:/Program Files (x86)/mingw-w64/i686-8.1.0-win32-dwarf-rt_v6-rev0/mingw32/bin/../lib/gcc/i686-w64-mingw32/8.1.0/../../../../i686-w64-mingw32/lib/../lib\libmsvcr100.a(dwnfs00332.o)
                              C:/Program Files (x86)/mingw-w64/i686-8.1.0-win32-dwarf-rt_v6-rev0/mingw32/bin/../lib/gcc/i686-w64-mingw32/8.1.0/../../../../i686-w64-mingw32/lib/../lib\libmingwex.a(lib32_libmingwex_a-mbrtowc.o) (___mb_cur_max_func)
C:/Program Files (x86)/mingw-w64/i686-8.1.0-win32-dwarf-rt_v6-rev0/mingw32/bin/../lib/gcc/i686-w64-mingw32/8.1.0/../../../../i686-w64-mingw32/lib/../lib\libmsvcr100.a(dwnfs00329.o)
                              C:/Program Files (x86)/mingw-w64/i686-8.1.0-win32-dwarf-rt_v6-rev0/mingw32/bin/../lib/gcc/i686-w64-mingw32/8.1.0/../../../../i686-w64-mingw32/lib/../lib\libmingwex.a(lib32_libmingwex_a-mbrtowc.o) (___lc_codepage_func)
C:/Program Files (x86)/mingw-w64/i686-8.1.0-win32-dwarf-rt_v6-rev0/mingw32/bin/../lib/gcc/i686-w64-mingw32/8.1.0/../../../../i686-w64-mingw32/lib/../lib\libmsvcr100.a(lib32_libmsvcr100_a-onexit_table.o)
                              C:/Program Files (x86)/mingw-w64/i686-8.1.0-win32-dwarf-rt_v6-rev0/mingw32/bin/../lib/gcc/i686-w64-mingw32/8.1.0/../../../../i686-w64-mingw32/lib/../lib/dllcrt2.o (_initialize_onexit_table)
C:/Program Files (x86)/mingw-w64/i686-8.1.0-win32-dwarf-rt_v6-rev0/mingw32/bin/../lib/gcc/i686-w64-mingw32/8.1.0/../../../../i686-w64-mingw32/lib/../lib\libmsvcr100.a(lib32_libmsvcr100_a-acrt_iob_func.o)
                              C:/Program Files (x86)/mingw-w64/i686-8.1.0-win32-dwarf-rt_v6-rev0/mingw32/bin/../lib/gcc/i686-w64-mingw32/8.1.0/../../../../i686-w64-mingw32/lib/../lib\libmingw32.a(lib32_libmingw32_a-pseudo-reloc.o) (__acrt_iob_func)
C:/Program Files (x86)/mingw-w64/i686-8.1.0-win32-dwarf-rt_v6-rev0/mingw32/bin/../lib/gcc/i686-w64-mingw32/8.1.0/../../../../i686-w64-mingw32/lib/../lib\libmsvcr100.a(dwnfh.o)
                              C:/Program Files (x86)/mingw-w64/i686-8.1.0-win32-dwarf-rt_v6-rev0/mingw32/bin/../lib/gcc/i686-w64-mingw32/8.1.0/../../../../i686-w64-mingw32/lib/../lib\libmsvcr100.a(dwnfs01726.o) (_head_lib32_libmsvcr100_a)
C:/Program Files (x86)/mingw-w64/i686-8.1.0-win32-dwarf-rt_v6-rev0/mingw32/bin/../lib/gcc/i686-w64-mingw32/8.1.0/../../../../i686-w64-mingw32/lib/../lib\libmsvcr100.a(dwnfs01276.o)
                              C:/Program Files (x86)/mingw-w64/i686-8.1.0-win32-dwarf-rt_v6-rev0/mingw32/bin/../lib/gcc/i686-w64-mingw32/8.1.0/../../../../i686-w64-mingw32/lib/../lib\libmsvcr100.a(lib32_libmsvcr100_a-onexit_table.o) (_unlock)
C:/Program Files (x86)/mingw-w64/i686-8.1.0-win32-dwarf-rt_v6-rev0/mingw32/bin/../lib/gcc/i686-w64-mingw32/8.1.0/../../../../i686-w64-mingw32/lib/../lib\libmsvcr100.a(dwnfs00858.o)
                              C:/Program Files (x86)/mingw-w64/i686-8.1.0-win32-dwarf-rt_v6-rev0/mingw32/bin/../lib/gcc/i686-w64-mingw32/8.1.0/../../../../i686-w64-mingw32/lib/../lib\libmsvcr100.a(lib32_libmsvcr100_a-onexit_table.o) (_lock)
C:/Program Files (x86)/mingw-w64/i686-8.1.0-win32-dwarf-rt_v6-rev0/mingw32/bin/../lib/gcc/i686-w64-mingw32/8.1.0/../../../../i686-w64-mingw32/lib/../lib\libmsvcr100.a(dwnft.o)
                              C:/Program Files (x86)/mingw-w64/i686-8.1.0-win32-dwarf-rt_v6-rev0/mingw32/bin/../lib/gcc/i686-w64-mingw32/8.1.0/../../../../i686-w64-mingw32/lib/../lib\libmsvcr100.a(dwnfh.o) (_lib32_libmsvcr100_a_iname)
C:/Program Files (x86)/mingw-w64/i686-8.1.0-win32-dwarf-rt_v6-rev0/mingw32/bin/../lib/gcc/i686-w64-mingw32/8.1.0/../../../../i686-w64-mingw32/lib/../lib\libuser32.a(dmces00595.o)
                              C:/Program Files (x86)/mingw-w64/i686-8.1.0-win32-dwarf-rt_v6-rev0/mingw32/bin/../lib/gcc/i686-w64-mingw32/8.1.0/../../../../i686-w64-mingw32/lib/../lib\libmingwex.a(lib32_libmingwex_a-wassert.o) (_imp__MessageBoxW@16)
C:/Program Files (x86)/mingw-w64/i686-8.1.0-win32-dwarf-rt_v6-rev0/mingw32/bin/../lib/gcc/i686-w64-mingw32/8.1.0/../../../../i686-w64-mingw32/lib/../lib\libuser32.a(dmceh.o)
                              C:/Program Files (x86)/mingw-w64/i686-8.1.0-win32-dwarf-rt_v6-rev0/mingw32/bin/../lib/gcc/i686-w64-mingw32/8.1.0/../../../../i686-w64-mingw32/lib/../lib\libuser32.a(dmces00595.o) (_head_lib32_libuser32_a)
C:/Program Files (x86)/mingw-w64/i686-8.1.0-win32-dwarf-rt_v6-rev0/mingw32/bin/../lib/gcc/i686-w64-mingw32/8.1.0/../../../../i686-w64-mingw32/lib/../lib\libuser32.a(dmcet.o)
                              C:/Program Files (x86)/mingw-w64/i686-8.1.0-win32-dwarf-rt_v6-rev0/mingw32/bin/../lib/gcc/i686-w64-mingw32/8.1.0/../../../../i686-w64-mingw32/lib/../lib\libuser32.a(dmceh.o) (_lib32_libuser32_a_iname)
C:/Program Files (x86)/mingw-w64/i686-8.1.0-win32-dwarf-rt_v6-rev0/mingw32/bin/../lib/gcc/i686-w64-mingw32/8.1.0/../../../../i686-w64-mingw32/lib/../lib\libkernel32.a(dgzcs01279.o)
                              C:/Program Files (x86)/mingw-w64/i686-8.1.0-win32-dwarf-rt_v6-rev0/mingw32/bin/../lib/gcc/i686-w64-mingw32/8.1.0/../../../../i686-w64-mingw32/lib/../lib\libmingwex.a(lib32_libmingwex_a-wcrtomb.o) (_imp__WideCharToMultiByte@32)
C:/Program Files (x86)/mingw-w64/i686-8.1.0-win32-dwarf-rt_v6-rev0/mingw32/bin/../lib/gcc/i686-w64-mingw32/8.1.0/../../../../i686-w64-mingw32/lib/../lib\libkernel32.a(dgzcs01255.o)
                              C:/Program Files (x86)/mingw-w64/i686-8.1.0-win32-dwarf-rt_v6-rev0/mingw32/bin/../lib/gcc/i686-w64-mingw32/8.1.0\libgcc.a(gthr-win32.o) (_imp__WaitForSingleObject@8)
C:/Program Files (x86)/mingw-w64/i686-8.1.0-win32-dwarf-rt_v6-rev0/mingw32/bin/../lib/gcc/i686-w64-mingw32/8.1.0/../../../../i686-w64-mingw32/lib/../lib\libkernel32.a(dgzcs01246.o)
                              C:/Program Files (x86)/mingw-w64/i686-8.1.0-win32-dwarf-rt_v6-rev0/mingw32/bin/../lib/gcc/i686-w64-mingw32/8.1.0/../../../../i686-w64-mingw32/lib/../lib\libmingw32.a(lib32_libmingw32_a-pseudo-reloc.o) (_imp__VirtualQuery@12)
C:/Program Files (x86)/mingw-w64/i686-8.1.0-win32-dwarf-rt_v6-rev0/mingw32/bin/../lib/gcc/i686-w64-mingw32/8.1.0/../../../../i686-w64-mingw32/lib/../lib\libkernel32.a(dgzcs01210.o)
                              C:/Program Files (x86)/mingw-w64/i686-8.1.0-win32-dwarf-rt_v6-rev0/mingw32/bin/../lib/gcc/i686-w64-mingw32/8.1.0/../../../../i686-w64-mingw32/lib/../lib\libmingw32.a(lib32_libmingw32_a-gs_support.o) (_imp__UnhandledExceptionFilter@4)
C:/Program Files (x86)/mingw-w64/i686-8.1.0-win32-dwarf-rt_v6-rev0/mingw32/bin/../lib/gcc/i686-w64-mingw32/8.1.0/../../../../i686-w64-mingw32/lib/../lib\libkernel32.a(dgzcs01198.o)
                              C:/Program Files (x86)/mingw-w64/i686-8.1.0-win32-dwarf-rt_v6-rev0/mingw32/bin/../lib/gcc/i686-w64-mingw32/8.1.0\libgcc.a(gthr-win32.o) (_imp__TlsSetValue@8)
C:/Program Files (x86)/mingw-w64/i686-8.1.0-win32-dwarf-rt_v6-rev0/mingw32/bin/../lib/gcc/i686-w64-mingw32/8.1.0/../../../../i686-w64-mingw32/lib/../lib\libkernel32.a(dgzcs01197.o)
                              C:/Program Files (x86)/mingw-w64/i686-8.1.0-win32-dwarf-rt_v6-rev0/mingw32/bin/../lib/gcc/i686-w64-mingw32/8.1.0/../../../../i686-w64-mingw32/lib/../lib\libmingw32.a(lib32_libmingw32_a-tlsthrd.o) (_imp__TlsGetValue@4)
C:/Program Files (x86)/mingw-w64/i686-8.1.0-win32-dwarf-rt_v6-rev0/mingw32/bin/../lib/gcc/i686-w64-mingw32/8.1.0/../../../../i686-w64-mingw32/lib/../lib\libkernel32.a(dgzcs01196.o)
                              C:/Program Files (x86)/mingw-w64/i686-8.1.0-win32-dwarf-rt_v6-rev0/mingw32/bin/../lib/gcc/i686-w64-mingw32/8.1.0\libgcc.a(gthr-win32.o) (_imp__TlsFree@4)
C:/Program Files (x86)/mingw-w64/i686-8.1.0-win32-dwarf-rt_v6-rev0/mingw32/bin/../lib/gcc/i686-w64-mingw32/8.1.0/../../../../i686-w64-mingw32/lib/../lib\libkernel32.a(dgzcs01195.o)
                              C:/Program Files (x86)/mingw-w64/i686-8.1.0-win32-dwarf-rt_v6-rev0/mingw32/bin/../lib/gcc/i686-w64-mingw32/8.1.0\libgcc.a(gthr-win32.o) (_imp__TlsAlloc@0)
C:/Program Files (x86)/mingw-w64/i686-8.1.0-win32-dwarf-rt_v6-rev0/mingw32/bin/../lib/gcc/i686-w64-mingw32/8.1.0/../../../../i686-w64-mingw32/lib/../lib\libkernel32.a(dgzcs01190.o)
                              C:/Program Files (x86)/mingw-w64/i686-8.1.0-win32-dwarf-rt_v6-rev0/mingw32/bin/../lib/gcc/i686-w64-mingw32/8.1.0/../../../../i686-w64-mingw32/lib/../lib\libmingw32.a(lib32_libmingw32_a-gs_support.o) (_imp__TerminateProcess@8)
C:/Program Files (x86)/mingw-w64/i686-8.1.0-win32-dwarf-rt_v6-rev0/mingw32/bin/../lib/gcc/i686-w64-mingw32/8.1.0/../../../../i686-w64-mingw32/lib/../lib\libkernel32.a(dgzcs01163.o)
                              C:/Program Files (x86)/mingw-w64/i686-8.1.0-win32-dwarf-rt_v6-rev0/mingw32/bin/../lib/gcc/i686-w64-mingw32/8.1.0/../../../../i686-w64-mingw32/lib/../lib\libmingw32.a(lib32_libmingw32_a-gs_support.o) (_imp__SetUnhandledExceptionFilter@4)
C:/Program Files (x86)/mingw-w64/i686-8.1.0-win32-dwarf-rt_v6-rev0/mingw32/bin/../lib/gcc/i686-w64-mingw32/8.1.0/../../../../i686-w64-mingw32/lib/../lib\libkernel32.a(dgzcs01114.o)
                              C:/Program Files (x86)/mingw-w64/i686-8.1.0-win32-dwarf-rt_v6-rev0/mingw32/bin/../lib/gcc/i686-w64-mingw32/8.1.0\libgcc.a(gthr-win32.o) (_imp__SetLastError@4)
C:/Program Files (x86)/mingw-w64/i686-8.1.0-win32-dwarf-rt_v6-rev0/mingw32/bin/../lib/gcc/i686-w64-mingw32/8.1.0/../../../../i686-w64-mingw32/lib/../lib\libkernel32.a(dgzcs00997.o)
                              C:/Program Files (x86)/mingw-w64/i686-8.1.0-win32-dwarf-rt_v6-rev0/mingw32/bin/../lib/gcc/i686-w64-mingw32/8.1.0\libgcc.a(gthr-win32.o) (_imp__ReleaseSemaphore@12)
C:/Program Files (x86)/mingw-w64/i686-8.1.0-win32-dwarf-rt_v6-rev0/mingw32/bin/../lib/gcc/i686-w64-mingw32/8.1.0/../../../../i686-w64-mingw32/lib/../lib\libkernel32.a(dgzcs00949.o)
                              C:/Program Files (x86)/mingw-w64/i686-8.1.0-win32-dwarf-rt_v6-rev0/mingw32/bin/../lib/gcc/i686-w64-mingw32/8.1.0/../../../../i686-w64-mingw32/lib/../lib\libmingw32.a(lib32_libmingw32_a-gs_support.o) (_imp__QueryPerformanceCounter@4)
C:/Program Files (x86)/mingw-w64/i686-8.1.0-win32-dwarf-rt_v6-rev0/mingw32/bin/../lib/gcc/i686-w64-mingw32/8.1.0/../../../../i686-w64-mingw32/lib/../lib\libkernel32.a(dgzcs00884.o)
                              C:/Program Files (x86)/mingw-w64/i686-8.1.0-win32-dwarf-rt_v6-rev0/mingw32/bin/../lib/gcc/i686-w64-mingw32/8.1.0/../../../../i686-w64-mingw32/lib/../lib\libmingwex.a(lib32_libmingwex_a-mbrtowc.o) (_imp__MultiByteToWideChar@24)
C:/Program Files (x86)/mingw-w64/i686-8.1.0-win32-dwarf-rt_v6-rev0/mingw32/bin/../lib/gcc/i686-w64-mingw32/8.1.0/../../../../i686-w64-mingw32/lib/../lib\libkernel32.a(dgzcs00836.o)
                              C:/Program Files (x86)/mingw-w64/i686-8.1.0-win32-dwarf-rt_v6-rev0/mingw32/bin/../lib/gcc/i686-w64-mingw32/8.1.0/../../../../i686-w64-mingw32/lib/../lib\libmingw32.a(lib32_libmingw32_a-tlsthrd.o) (_imp__LeaveCriticalSection@4)
C:/Program Files (x86)/mingw-w64/i686-8.1.0-win32-dwarf-rt_v6-rev0/mingw32/bin/../lib/gcc/i686-w64-mingw32/8.1.0/../../../../i686-w64-mingw32/lib/../lib\libkernel32.a(dgzcs00778.o)
                              C:/Program Files (x86)/mingw-w64/i686-8.1.0-win32-dwarf-rt_v6-rev0/mingw32/bin/../lib/gcc/i686-w64-mingw32/8.1.0/../../../../i686-w64-mingw32/lib/../lib\libmingwex.a(lib32_libmingwex_a-mbrtowc.o) (_imp__IsDBCSLeadByteEx@8)
C:/Program Files (x86)/mingw-w64/i686-8.1.0-win32-dwarf-rt_v6-rev0/mingw32/bin/../lib/gcc/i686-w64-mingw32/8.1.0/../../../../i686-w64-mingw32/lib/../lib\libkernel32.a(dgzcs00750.o)
                              C:/Program Files (x86)/mingw-w64/i686-8.1.0-win32-dwarf-rt_v6-rev0/mingw32/bin/../lib/gcc/i686-w64-mingw32/8.1.0/../../../../i686-w64-mingw32/lib/../lib\libmingw32.a(lib32_libmingw32_a-tlsthrd.o) (_imp__InitializeCriticalSection@4)
C:/Program Files (x86)/mingw-w64/i686-8.1.0-win32-dwarf-rt_v6-rev0/mingw32/bin/../lib/gcc/i686-w64-mingw32/8.1.0/../../../../i686-w64-mingw32/lib/../lib\libkernel32.a(dgzcs00666.o)
                              C:/Program Files (x86)/mingw-w64/i686-8.1.0-win32-dwarf-rt_v6-rev0/mingw32/bin/../lib/gcc/i686-w64-mingw32/8.1.0/../../../../i686-w64-mingw32/lib/../lib\libmingw32.a(lib32_libmingw32_a-gs_support.o) (_imp__GetTickCount@0)
C:/Program Files (x86)/mingw-w64/i686-8.1.0-win32-dwarf-rt_v6-rev0/mingw32/bin/../lib/gcc/i686-w64-mingw32/8.1.0/../../../../i686-w64-mingw32/lib/../lib\libkernel32.a(dgzcs00638.o)
                              C:/Program Files (x86)/mingw-w64/i686-8.1.0-win32-dwarf-rt_v6-rev0/mingw32/bin/../lib/gcc/i686-w64-mingw32/8.1.0/../../../../i686-w64-mingw32/lib/../lib\libmingw32.a(lib32_libmingw32_a-gs_support.o) (_imp__GetSystemTimeAsFileTime@4)
C:/Program Files (x86)/mingw-w64/i686-8.1.0-win32-dwarf-rt_v6-rev0/mingw32/bin/../lib/gcc/i686-w64-mingw32/8.1.0/../../../../i686-w64-mingw32/lib/../lib\libkernel32.a(dgzcs00518.o)
                              C:/Program Files (x86)/mingw-w64/i686-8.1.0-win32-dwarf-rt_v6-rev0/mingw32/bin/../lib/gcc/i686-w64-mingw32/8.1.0/../../../../i686-w64-mingw32/lib/../lib\libmingw32.a(lib32_libmingw32_a-pseudo-reloc.o) (_imp__GetLastError@0)
C:/Program Files (x86)/mingw-w64/i686-8.1.0-win32-dwarf-rt_v6-rev0/mingw32/bin/../lib/gcc/i686-w64-mingw32/8.1.0/../../../../i686-w64-mingw32/lib/../lib\libkernel32.a(dgzcs00460.o)
                              C:/Program Files (x86)/mingw-w64/i686-8.1.0-win32-dwarf-rt_v6-rev0/mingw32/bin/../lib/gcc/i686-w64-mingw32/8.1.0/../../../../i686-w64-mingw32/lib/../lib\libmingw32.a(lib32_libmingw32_a-gs_support.o) (_imp__GetCurrentThreadId@0)
C:/Program Files (x86)/mingw-w64/i686-8.1.0-win32-dwarf-rt_v6-rev0/mingw32/bin/../lib/gcc/i686-w64-mingw32/8.1.0/../../../../i686-w64-mingw32/lib/../lib\libkernel32.a(dgzcs00456.o)
                              C:/Program Files (x86)/mingw-w64/i686-8.1.0-win32-dwarf-rt_v6-rev0/mingw32/bin/../lib/gcc/i686-w64-mingw32/8.1.0/../../../../i686-w64-mingw32/lib/../lib\libmingw32.a(lib32_libmingw32_a-gs_support.o) (_imp__GetCurrentProcessId@0)
C:/Program Files (x86)/mingw-w64/i686-8.1.0-win32-dwarf-rt_v6-rev0/mingw32/bin/../lib/gcc/i686-w64-mingw32/8.1.0/../../../../i686-w64-mingw32/lib/../lib\libkernel32.a(dgzcs00455.o)
                              C:/Program Files (x86)/mingw-w64/i686-8.1.0-win32-dwarf-rt_v6-rev0/mingw32/bin/../lib/gcc/i686-w64-mingw32/8.1.0/../../../../i686-w64-mingw32/lib/../lib\libmingw32.a(lib32_libmingw32_a-gs_support.o) (_imp__GetCurrentProcess@0)
C:/Program Files (x86)/mingw-w64/i686-8.1.0-win32-dwarf-rt_v6-rev0/mingw32/bin/../lib/gcc/i686-w64-mingw32/8.1.0/../../../../i686-w64-mingw32/lib/../lib\libkernel32.a(dgzcs00242.o)
                              C:/Program Files (x86)/mingw-w64/i686-8.1.0-win32-dwarf-rt_v6-rev0/mingw32/bin/../lib/gcc/i686-w64-mingw32/8.1.0/../../../../i686-w64-mingw32/lib/../lib\libmingw32.a(lib32_libmingw32_a-tlsthrd.o) (_imp__EnterCriticalSection@4)
C:/Program Files (x86)/mingw-w64/i686-8.1.0-win32-dwarf-rt_v6-rev0/mingw32/bin/../lib/gcc/i686-w64-mingw32/8.1.0/../../../../i686-w64-mingw32/lib/../lib\libkernel32.a(dgzcs00214.o)
                              C:/Program Files (x86)/mingw-w64/i686-8.1.0-win32-dwarf-rt_v6-rev0/mingw32/bin/../lib/gcc/i686-w64-mingw32/8.1.0/../../../../i686-w64-mingw32/lib/../lib\libmingw32.a(lib32_libmingw32_a-tlsthrd.o) (_imp__DeleteCriticalSection@4)
C:/Program Files (x86)/mingw-w64/i686-8.1.0-win32-dwarf-rt_v6-rev0/mingw32/bin/../lib/gcc/i686-w64-mingw32/8.1.0/../../../../i686-w64-mingw32/lib/../lib\libkernel32.a(dgzcs00178.o)
                              C:/Program Files (x86)/mingw-w64/i686-8.1.0-win32-dwarf-rt_v6-rev0/mingw32/bin/../lib/gcc/i686-w64-mingw32/8.1.0\libgcc.a(gthr-win32.o) (_imp__CreateSemaphoreW@16)
C:/Program Files (x86)/mingw-w64/i686-8.1.0-win32-dwarf-rt_v6-rev0/mingw32/bin/../lib/gcc/i686-w64-mingw32/8.1.0/../../../../i686-w64-mingw32/lib/../lib\libkernel32.a(dgzcs00083.o)
                              C:/Program Files (x86)/mingw-w64/i686-8.1.0-win32-dwarf-rt_v6-rev0/mingw32/bin/../lib/gcc/i686-w64-mingw32/8.1.0\libgcc.a(gthr-win32.o) (_imp__CloseHandle@4)
C:/Program Files (x86)/mingw-w64/i686-8.1.0-win32-dwarf-rt_v6-rev0/mingw32/bin/../lib/gcc/i686-w64-mingw32/8.1.0/../../../../i686-w64-mingw32/lib/../lib\libmingw32.a(lib32_libmingw32_a-tlsmthread.o)
                              C:/Program Files (x86)/mingw-w64/i686-8.1.0-win32-dwarf-rt_v6-rev0/mingw32/bin/../lib/gcc/i686-w64-mingw32/8.1.0\libgcc.a(gthr-win32.o) (__mingwthr_key_dtor)
C:/Program Files (x86)/mingw-w64/i686-8.1.0-win32-dwarf-rt_v6-rev0/mingw32/bin/../lib/gcc/i686-w64-mingw32/8.1.0\libgcc.a(_umoddi3.o)
                              C:/Program Files (x86)/mingw-w64/i686-8.1.0-win32-dwarf-rt_v6-rev0/mingw32/bin/../lib/gcc/i686-w64-mingw32/8.1.0/../../../../i686-w64-mingw32/lib/../lib\libmingwex.a(lib32_libmingwex_a-mingw_pformat.o) (__umoddi3)

Allocating common symbols
Common symbol       size              file

__native_startup_lock
                    0x4               C:/Program Files (x86)/mingw-w64/i686-8.1.0-win32-dwarf-rt_v6-rev0/mingw32/bin/../lib/gcc/i686-w64-mingw32/8.1.0/../../../../i686-w64-mingw32/lib/../lib\libmingw32.a(lib32_libmingw32_a-natstart.o)
hmod_libgcc         0x4               C:/Program Files (x86)/mingw-w64/i686-8.1.0-win32-dwarf-rt_v6-rev0/mingw32/bin/../lib/gcc/i686-w64-mingw32/8.1.0/crtbegin.o
ltc_mp              0xc4              .\libtomcrypt.a(crypt_ltc_mp_descriptor.o)
__native_startup_state
                    0x4               C:/Program Files (x86)/mingw-w64/i686-8.1.0-win32-dwarf-rt_v6-rev0/mingw32/bin/../lib/gcc/i686-w64-mingw32/8.1.0/../../../../i686-w64-mingw32/lib/../lib\libmingw32.a(lib32_libmingw32_a-natstart.o)

Discarded input sections

 .drectve       0x00000000       0x1c C:/Program Files (x86)/mingw-w64/i686-8.1.0-win32-dwarf-rt_v6-rev0/mingw32/bin/../lib/gcc/i686-w64-mingw32/8.1.0/crtbegin.o
 .drectve       0x00000000       0x34 main.o
 .drectve       0x00000000       0x18 .\libtomcrypt.a(crypt_ltc_mp_descriptor.o)
 .rdata$_ZTSSt9exception
                0x00000000       0x10 C:/Program Files (x86)/mingw-w64/i686-8.1.0-win32-dwarf-rt_v6-rev0/mingw32/bin/../lib/gcc/i686-w64-mingw32/8.1.0\libstdc++.a(eh_exception.o)
 .rdata$_ZTISt9exception
                0x00000000        0x8 C:/Program Files (x86)/mingw-w64/i686-8.1.0-win32-dwarf-rt_v6-rev0/mingw32/bin/../lib/gcc/i686-w64-mingw32/8.1.0\libstdc++.a(eh_exception.o)
 .rdata$_ZTSN10__cxxabiv115__forced_unwindE
                0x00000000       0x20 C:/Program Files (x86)/mingw-w64/i686-8.1.0-win32-dwarf-rt_v6-rev0/mingw32/bin/../lib/gcc/i686-w64-mingw32/8.1.0\libstdc++.a(eh_personality.o)
 .rdata$_ZTIN10__cxxabiv115__forced_unwindE
                0x00000000        0x8 C:/Program Files (x86)/mingw-w64/i686-8.1.0-win32-dwarf-rt_v6-rev0/mingw32/bin/../lib/gcc/i686-w64-mingw32/8.1.0\libstdc++.a(eh_personality.o)
 .rdata$_ZTSSt9exception
                0x00000000       0x10 C:/Program Files (x86)/mingw-w64/i686-8.1.0-win32-dwarf-rt_v6-rev0/mingw32/bin/../lib/gcc/i686-w64-mingw32/8.1.0\libstdc++.a(eh_personality.o)
 .rdata$_ZTISt9exception
                0x00000000        0x8 C:/Program Files (x86)/mingw-w64/i686-8.1.0-win32-dwarf-rt_v6-rev0/mingw32/bin/../lib/gcc/i686-w64-mingw32/8.1.0\libstdc++.a(eh_personality.o)
 .rdata$_ZTSN10__cxxabiv119__foreign_exceptionE
                0x00000000       0x40 C:/Program Files (x86)/mingw-w64/i686-8.1.0-win32-dwarf-rt_v6-rev0/mingw32/bin/../lib/gcc/i686-w64-mingw32/8.1.0\libstdc++.a(eh_personality.o)
 .rdata$_ZTIN10__cxxabiv119__foreign_exceptionE
                0x00000000        0x8 C:/Program Files (x86)/mingw-w64/i686-8.1.0-win32-dwarf-rt_v6-rev0/mingw32/bin/../lib/gcc/i686-w64-mingw32/8.1.0\libstdc++.a(eh_personality.o)
 .rdata$_ZTSSt13bad_exception
                0x00000000       0x14 C:/Program Files (x86)/mingw-w64/i686-8.1.0-win32-dwarf-rt_v6-rev0/mingw32/bin/../lib/gcc/i686-w64-mingw32/8.1.0\libstdc++.a(eh_personality.o)
 .rdata$_ZTISt13bad_exception
                0x00000000        0xc C:/Program Files (x86)/mingw-w64/i686-8.1.0-win32-dwarf-rt_v6-rev0/mingw32/bin/../lib/gcc/i686-w64-mingw32/8.1.0\libstdc++.a(eh_personality.o)
 .rdata$_ZTSSt9exception
                0x00000000       0x10 C:/Program Files (x86)/mingw-w64/i686-8.1.0-win32-dwarf-rt_v6-rev0/mingw32/bin/../lib/gcc/i686-w64-mingw32/8.1.0\libstdc++.a(new_op.o)
 .rdata$_ZTISt9exception
                0x00000000        0x8 C:/Program Files (x86)/mingw-w64/i686-8.1.0-win32-dwarf-rt_v6-rev0/mingw32/bin/../lib/gcc/i686-w64-mingw32/8.1.0\libstdc++.a(new_op.o)
 .rdata$_ZTSSt9type_info
                0x00000000       0x10 C:/Program Files (x86)/mingw-w64/i686-8.1.0-win32-dwarf-rt_v6-rev0/mingw32/bin/../lib/gcc/i686-w64-mingw32/8.1.0\libstdc++.a(si_class_type_info.o)
 .rdata$_ZTISt9type_info
                0x00000000        0x8 C:/Program Files (x86)/mingw-w64/i686-8.1.0-win32-dwarf-rt_v6-rev0/mingw32/bin/../lib/gcc/i686-w64-mingw32/8.1.0\libstdc++.a(si_class_type_info.o)
 .rdata$_ZTSN10__cxxabiv117__class_type_infoE
                0x00000000       0x40 C:/Program Files (x86)/mingw-w64/i686-8.1.0-win32-dwarf-rt_v6-rev0/mingw32/bin/../lib/gcc/i686-w64-mingw32/8.1.0\libstdc++.a(si_class_type_info.o)
 .rdata$_ZTIN10__cxxabiv117__class_type_infoE
                0x00000000        0xc C:/Program Files (x86)/mingw-w64/i686-8.1.0-win32-dwarf-rt_v6-rev0/mingw32/bin/../lib/gcc/i686-w64-mingw32/8.1.0\libstdc++.a(si_class_type_info.o)
 .rdata$_ZTSSt9type_info
                0x00000000       0x10 C:/Program Files (x86)/mingw-w64/i686-8.1.0-win32-dwarf-rt_v6-rev0/mingw32/bin/../lib/gcc/i686-w64-mingw32/8.1.0\libstdc++.a(tinfo.o)
 .rdata$_ZTISt9type_info
                0x00000000        0x8 C:/Program Files (x86)/mingw-w64/i686-8.1.0-win32-dwarf-rt_v6-rev0/mingw32/bin/../lib/gcc/i686-w64-mingw32/8.1.0\libstdc++.a(tinfo.o)
 .rdata$_ZTSSt9exception
                0x00000000       0x10 C:/Program Files (x86)/mingw-w64/i686-8.1.0-win32-dwarf-rt_v6-rev0/mingw32/bin/../lib/gcc/i686-w64-mingw32/8.1.0\libstdc++.a(vterminate.o)
 .rdata$_ZTISt9exception
                0x00000000        0x8 C:/Program Files (x86)/mingw-w64/i686-8.1.0-win32-dwarf-rt_v6-rev0/mingw32/bin/../lib/gcc/i686-w64-mingw32/8.1.0\libstdc++.a(vterminate.o)
 .rdata$_ZTSSt9exception
                0x00000000       0x10 C:/Program Files (x86)/mingw-w64/i686-8.1.0-win32-dwarf-rt_v6-rev0/mingw32/bin/../lib/gcc/i686-w64-mingw32/8.1.0\libstdc++.a(bad_alloc.o)
 .rdata$_ZTISt9exception
                0x00000000        0x8 C:/Program Files (x86)/mingw-w64/i686-8.1.0-win32-dwarf-rt_v6-rev0/mingw32/bin/../lib/gcc/i686-w64-mingw32/8.1.0\libstdc++.a(bad_alloc.o)
 .rdata$_ZTSSt9bad_alloc
                0x00000000       0x10 C:/Program Files (x86)/mingw-w64/i686-8.1.0-win32-dwarf-rt_v6-rev0/mingw32/bin/../lib/gcc/i686-w64-mingw32/8.1.0\libstdc++.a(bad_alloc.o)
 .rdata$_ZTISt9bad_alloc
                0x00000000        0xc C:/Program Files (x86)/mingw-w64/i686-8.1.0-win32-dwarf-rt_v6-rev0/mingw32/bin/../lib/gcc/i686-w64-mingw32/8.1.0\libstdc++.a(bad_alloc.o)
 .text          0x00000000        0x8 C:/Program Files (x86)/mingw-w64/i686-8.1.0-win32-dwarf-rt_v6-rev0/mingw32/bin/../lib/gcc/i686-w64-mingw32/8.1.0/../../../../i686-w64-mingw32/lib/../lib\libkernel32.a(dgzcs01243.o)
 .text          0x00000000        0x8 C:/Program Files (x86)/mingw-w64/i686-8.1.0-win32-dwarf-rt_v6-rev0/mingw32/bin/../lib/gcc/i686-w64-mingw32/8.1.0/../../../../i686-w64-mingw32/lib/../lib\libkernel32.a(dgzcs01239.o)
 .text          0x00000000        0x8 C:/Program Files (x86)/mingw-w64/i686-8.1.0-win32-dwarf-rt_v6-rev0/mingw32/bin/../lib/gcc/i686-w64-mingw32/8.1.0/../../../../i686-w64-mingw32/lib/../lib\libkernel32.a(dgzcs01233.o)
 .text          0x00000000        0x8 C:/Program Files (x86)/mingw-w64/i686-8.1.0-win32-dwarf-rt_v6-rev0/mingw32/bin/../lib/gcc/i686-w64-mingw32/8.1.0/../../../../i686-w64-mingw32/lib/../lib\libkernel32.a(dgzcs01176.o)
 .text          0x00000000        0x8 C:/Program Files (x86)/mingw-w64/i686-8.1.0-win32-dwarf-rt_v6-rev0/mingw32/bin/../lib/gcc/i686-w64-mingw32/8.1.0/../../../../i686-w64-mingw32/lib/../lib\libkernel32.a(dgzcs00839.o)
 .text          0x00000000        0x8 C:/Program Files (x86)/mingw-w64/i686-8.1.0-win32-dwarf-rt_v6-rev0/mingw32/bin/../lib/gcc/i686-w64-mingw32/8.1.0/../../../../i686-w64-mingw32/lib/../lib\libkernel32.a(dgzcs00584.o)
 .text          0x00000000        0x8 C:/Program Files (x86)/mingw-w64/i686-8.1.0-win32-dwarf-rt_v6-rev0/mingw32/bin/../lib/gcc/i686-w64-mingw32/8.1.0/../../../../i686-w64-mingw32/lib/../lib\libkernel32.a(dgzcs00536.o)
 .text          0x00000000        0x8 C:/Program Files (x86)/mingw-w64/i686-8.1.0-win32-dwarf-rt_v6-rev0/mingw32/bin/../lib/gcc/i686-w64-mingw32/8.1.0/../../../../i686-w64-mingw32/lib/../lib\libkernel32.a(dgzcs00535.o)
 .text          0x00000000        0x8 C:/Program Files (x86)/mingw-w64/i686-8.1.0-win32-dwarf-rt_v6-rev0/mingw32/bin/../lib/gcc/i686-w64-mingw32/8.1.0/../../../../i686-w64-mingw32/lib/../lib\libkernel32.a(dgzcs00359.o)
 .drectve       0x00000000       0x50 C:/Program Files (x86)/mingw-w64/i686-8.1.0-win32-dwarf-rt_v6-rev0/mingw32/bin/../lib/gcc/i686-w64-mingw32/8.1.0/../../../../i686-w64-mingw32/lib/../lib\libmingw32.a(lib32_libmingw32_a-natstart.o)
 .debug_line    0x00000000       0x77 C:/Program Files (x86)/mingw-w64/i686-8.1.0-win32-dwarf-rt_v6-rev0/mingw32/bin/../lib/gcc/i686-w64-mingw32/8.1.0\libgcc.a(_chkstk_ms.o)
 .debug_info    0x00000000       0x26 C:/Program Files (x86)/mingw-w64/i686-8.1.0-win32-dwarf-rt_v6-rev0/mingw32/bin/../lib/gcc/i686-w64-mingw32/8.1.0\libgcc.a(_chkstk_ms.o)
 .debug_abbrev  0x00000000       0x14 C:/Program Files (x86)/mingw-w64/i686-8.1.0-win32-dwarf-rt_v6-rev0/mingw32/bin/../lib/gcc/i686-w64-mingw32/8.1.0\libgcc.a(_chkstk_ms.o)
 .debug_aranges
                0x00000000       0x20 C:/Program Files (x86)/mingw-w64/i686-8.1.0-win32-dwarf-rt_v6-rev0/mingw32/bin/../lib/gcc/i686-w64-mingw32/8.1.0\libgcc.a(_chkstk_ms.o)
 .debug_str     0x00000000       0x99 C:/Program Files (x86)/mingw-w64/i686-8.1.0-win32-dwarf-rt_v6-rev0/mingw32/bin/../lib/gcc/i686-w64-mingw32/8.1.0\libgcc.a(_chkstk_ms.o)
 .debug_frame   0x00000000       0x38 C:/Program Files (x86)/mingw-w64/i686-8.1.0-win32-dwarf-rt_v6-rev0/mingw32/bin/../lib/gcc/i686-w64-mingw32/8.1.0\libgcc.a(_chkstk_ms.o)
 .drectve       0x00000000       0x3c C:/Program Files (x86)/mingw-w64/i686-8.1.0-win32-dwarf-rt_v6-rev0/mingw32/bin/../lib/gcc/i686-w64-mingw32/8.1.0\libgcc.a(_ctors.o)
 .debug_info    0x00000000     0x1f70 C:/Program Files (x86)/mingw-w64/i686-8.1.0-win32-dwarf-rt_v6-rev0/mingw32/bin/../lib/gcc/i686-w64-mingw32/8.1.0\libgcc.a(_ctors.o)
 .debug_abbrev  0x00000000      0x135 C:/Program Files (x86)/mingw-w64/i686-8.1.0-win32-dwarf-rt_v6-rev0/mingw32/bin/../lib/gcc/i686-w64-mingw32/8.1.0\libgcc.a(_ctors.o)
 .debug_aranges
                0x00000000       0x18 C:/Program Files (x86)/mingw-w64/i686-8.1.0-win32-dwarf-rt_v6-rev0/mingw32/bin/../lib/gcc/i686-w64-mingw32/8.1.0\libgcc.a(_ctors.o)
 .debug_line    0x00000000      0x1b2 C:/Program Files (x86)/mingw-w64/i686-8.1.0-win32-dwarf-rt_v6-rev0/mingw32/bin/../lib/gcc/i686-w64-mingw32/8.1.0\libgcc.a(_ctors.o)
 .debug_str     0x00000000        0x0 C:/Program Files (x86)/mingw-w64/i686-8.1.0-win32-dwarf-rt_v6-rev0/mingw32/bin/../lib/gcc/i686-w64-mingw32/8.1.0\libgcc.a(_ctors.o)
 .debug_info    0x00000000     0x1750 C:/Program Files (x86)/mingw-w64/i686-8.1.0-win32-dwarf-rt_v6-rev0/mingw32/bin/../lib/gcc/i686-w64-mingw32/8.1.0\libgcc.a(_udivdi3.o)
 .debug_abbrev  0x00000000      0x20d C:/Program Files (x86)/mingw-w64/i686-8.1.0-win32-dwarf-rt_v6-rev0/mingw32/bin/../lib/gcc/i686-w64-mingw32/8.1.0\libgcc.a(_udivdi3.o)
 .debug_loc     0x00000000      0x6d0 C:/Program Files (x86)/mingw-w64/i686-8.1.0-win32-dwarf-rt_v6-rev0/mingw32/bin/../lib/gcc/i686-w64-mingw32/8.1.0\libgcc.a(_udivdi3.o)
 .debug_aranges
                0x00000000       0x20 C:/Program Files (x86)/mingw-w64/i686-8.1.0-win32-dwarf-rt_v6-rev0/mingw32/bin/../lib/gcc/i686-w64-mingw32/8.1.0\libgcc.a(_udivdi3.o)
 .debug_ranges  0x00000000       0x28 C:/Program Files (x86)/mingw-w64/i686-8.1.0-win32-dwarf-rt_v6-rev0/mingw32/bin/../lib/gcc/i686-w64-mingw32/8.1.0\libgcc.a(_udivdi3.o)
 .debug_line    0x00000000      0x2bb C:/Program Files (x86)/mingw-w64/i686-8.1.0-win32-dwarf-rt_v6-rev0/mingw32/bin/../lib/gcc/i686-w64-mingw32/8.1.0\libgcc.a(_udivdi3.o)
 .debug_str     0x00000000        0x0 C:/Program Files (x86)/mingw-w64/i686-8.1.0-win32-dwarf-rt_v6-rev0/mingw32/bin/../lib/gcc/i686-w64-mingw32/8.1.0\libgcc.a(_udivdi3.o)
 .debug_info    0x00000000     0x5580 C:/Program Files (x86)/mingw-w64/i686-8.1.0-win32-dwarf-rt_v6-rev0/mingw32/bin/../lib/gcc/i686-w64-mingw32/8.1.0\libgcc.a(gthr-win32.o)
 .debug_abbrev  0x00000000      0x34d C:/Program Files (x86)/mingw-w64/i686-8.1.0-win32-dwarf-rt_v6-rev0/mingw32/bin/../lib/gcc/i686-w64-mingw32/8.1.0\libgcc.a(gthr-win32.o)
 .debug_loc     0x00000000      0x345 C:/Program Files (x86)/mingw-w64/i686-8.1.0-win32-dwarf-rt_v6-rev0/mingw32/bin/../lib/gcc/i686-w64-mingw32/8.1.0\libgcc.a(gthr-win32.o)
 .debug_aranges
                0x00000000       0x20 C:/Program Files (x86)/mingw-w64/i686-8.1.0-win32-dwarf-rt_v6-rev0/mingw32/bin/../lib/gcc/i686-w64-mingw32/8.1.0\libgcc.a(gthr-win32.o)
 .debug_ranges  0x00000000       0x50 C:/Program Files (x86)/mingw-w64/i686-8.1.0-win32-dwarf-rt_v6-rev0/mingw32/bin/../lib/gcc/i686-w64-mingw32/8.1.0\libgcc.a(gthr-win32.o)
 .debug_line    0x00000000      0x6cd C:/Program Files (x86)/mingw-w64/i686-8.1.0-win32-dwarf-rt_v6-rev0/mingw32/bin/../lib/gcc/i686-w64-mingw32/8.1.0\libgcc.a(gthr-win32.o)
 .debug_str     0x00000000       0x23 C:/Program Files (x86)/mingw-w64/i686-8.1.0-win32-dwarf-rt_v6-rev0/mingw32/bin/../lib/gcc/i686-w64-mingw32/8.1.0\libgcc.a(gthr-win32.o)
 .debug_info    0x00000000     0xcd45 C:/Program Files (x86)/mingw-w64/i686-8.1.0-win32-dwarf-rt_v6-rev0/mingw32/bin/../lib/gcc/i686-w64-mingw32/8.1.0\libgcc_eh.a(unwind-dw2.o)
 .debug_abbrev  0x00000000      0x832 C:/Program Files (x86)/mingw-w64/i686-8.1.0-win32-dwarf-rt_v6-rev0/mingw32/bin/../lib/gcc/i686-w64-mingw32/8.1.0\libgcc_eh.a(unwind-dw2.o)
 .debug_loc     0x00000000     0x6c14 C:/Program Files (x86)/mingw-w64/i686-8.1.0-win32-dwarf-rt_v6-rev0/mingw32/bin/../lib/gcc/i686-w64-mingw32/8.1.0\libgcc_eh.a(unwind-dw2.o)
 .debug_aranges
                0x00000000       0x28 C:/Program Files (x86)/mingw-w64/i686-8.1.0-win32-dwarf-rt_v6-rev0/mingw32/bin/../lib/gcc/i686-w64-mingw32/8.1.0\libgcc_eh.a(unwind-dw2.o)
 .debug_ranges  0x00000000      0xa80 C:/Program Files (x86)/mingw-w64/i686-8.1.0-win32-dwarf-rt_v6-rev0/mingw32/bin/../lib/gcc/i686-w64-mingw32/8.1.0\libgcc_eh.a(unwind-dw2.o)
 .debug_line    0x00000000     0x3284 C:/Program Files (x86)/mingw-w64/i686-8.1.0-win32-dwarf-rt_v6-rev0/mingw32/bin/../lib/gcc/i686-w64-mingw32/8.1.0\libgcc_eh.a(unwind-dw2.o)
 .debug_str     0x00000000       0xd6 C:/Program Files (x86)/mingw-w64/i686-8.1.0-win32-dwarf-rt_v6-rev0/mingw32/bin/../lib/gcc/i686-w64-mingw32/8.1.0\libgcc_eh.a(unwind-dw2.o)
 .debug_info    0x00000000     0x9d19 C:/Program Files (x86)/mingw-w64/i686-8.1.0-win32-dwarf-rt_v6-rev0/mingw32/bin/../lib/gcc/i686-w64-mingw32/8.1.0\libgcc_eh.a(unwind-dw2-fde.o)
 .debug_abbrev  0x00000000      0x7a3 C:/Program Files (x86)/mingw-w64/i686-8.1.0-win32-dwarf-rt_v6-rev0/mingw32/bin/../lib/gcc/i686-w64-mingw32/8.1.0\libgcc_eh.a(unwind-dw2-fde.o)
 .debug_loc     0x00000000     0x2f52 C:/Program Files (x86)/mingw-w64/i686-8.1.0-win32-dwarf-rt_v6-rev0/mingw32/bin/../lib/gcc/i686-w64-mingw32/8.1.0\libgcc_eh.a(unwind-dw2-fde.o)
 .debug_aranges
                0x00000000       0x28 C:/Program Files (x86)/mingw-w64/i686-8.1.0-win32-dwarf-rt_v6-rev0/mingw32/bin/../lib/gcc/i686-w64-mingw32/8.1.0\libgcc_eh.a(unwind-dw2-fde.o)
 .debug_ranges  0x00000000      0x640 C:/Program Files (x86)/mingw-w64/i686-8.1.0-win32-dwarf-rt_v6-rev0/mingw32/bin/../lib/gcc/i686-w64-mingw32/8.1.0\libgcc_eh.a(unwind-dw2-fde.o)
 .debug_line    0x00000000     0x1cc1 C:/Program Files (x86)/mingw-w64/i686-8.1.0-win32-dwarf-rt_v6-rev0/mingw32/bin/../lib/gcc/i686-w64-mingw32/8.1.0\libgcc_eh.a(unwind-dw2-fde.o)
 .debug_str     0x00000000       0x7f C:/Program Files (x86)/mingw-w64/i686-8.1.0-win32-dwarf-rt_v6-rev0/mingw32/bin/../lib/gcc/i686-w64-mingw32/8.1.0\libgcc_eh.a(unwind-dw2-fde.o)
 .debug_info    0x00000000     0x744c C:/Program Files (x86)/mingw-w64/i686-8.1.0-win32-dwarf-rt_v6-rev0/mingw32/bin/../lib/gcc/i686-w64-mingw32/8.1.0\libgcc_eh.a(emutls.o)
 .debug_abbrev  0x00000000      0x4c2 C:/Program Files (x86)/mingw-w64/i686-8.1.0-win32-dwarf-rt_v6-rev0/mingw32/bin/../lib/gcc/i686-w64-mingw32/8.1.0\libgcc_eh.a(emutls.o)
 .debug_loc     0x00000000      0x708 C:/Program Files (x86)/mingw-w64/i686-8.1.0-win32-dwarf-rt_v6-rev0/mingw32/bin/../lib/gcc/i686-w64-mingw32/8.1.0\libgcc_eh.a(emutls.o)
 .debug_aranges
                0x00000000       0x28 C:/Program Files (x86)/mingw-w64/i686-8.1.0-win32-dwarf-rt_v6-rev0/mingw32/bin/../lib/gcc/i686-w64-mingw32/8.1.0\libgcc_eh.a(emutls.o)
 .debug_ranges  0x00000000      0x148 C:/Program Files (x86)/mingw-w64/i686-8.1.0-win32-dwarf-rt_v6-rev0/mingw32/bin/../lib/gcc/i686-w64-mingw32/8.1.0\libgcc_eh.a(emutls.o)
 .debug_line    0x00000000      0x849 C:/Program Files (x86)/mingw-w64/i686-8.1.0-win32-dwarf-rt_v6-rev0/mingw32/bin/../lib/gcc/i686-w64-mingw32/8.1.0\libgcc_eh.a(emutls.o)
 .debug_str     0x00000000       0x33 C:/Program Files (x86)/mingw-w64/i686-8.1.0-win32-dwarf-rt_v6-rev0/mingw32/bin/../lib/gcc/i686-w64-mingw32/8.1.0\libgcc_eh.a(emutls.o)
 .text          0x00000000        0x8 C:/Program Files (x86)/mingw-w64/i686-8.1.0-win32-dwarf-rt_v6-rev0/mingw32/bin/../lib/gcc/i686-w64-mingw32/8.1.0/../../../../i686-w64-mingw32/lib/../lib\libmsvcr100.a(dwnfs01426.o)
 .text          0x00000000        0x8 C:/Program Files (x86)/mingw-w64/i686-8.1.0-win32-dwarf-rt_v6-rev0/mingw32/bin/../lib/gcc/i686-w64-mingw32/8.1.0/../../../../i686-w64-mingw32/lib/../lib\libuser32.a(dmces00595.o)
 .text          0x00000000        0x8 C:/Program Files (x86)/mingw-w64/i686-8.1.0-win32-dwarf-rt_v6-rev0/mingw32/bin/../lib/gcc/i686-w64-mingw32/8.1.0/../../../../i686-w64-mingw32/lib/../lib\libkernel32.a(dgzcs01279.o)
 .text          0x00000000        0x8 C:/Program Files (x86)/mingw-w64/i686-8.1.0-win32-dwarf-rt_v6-rev0/mingw32/bin/../lib/gcc/i686-w64-mingw32/8.1.0/../../../../i686-w64-mingw32/lib/../lib\libkernel32.a(dgzcs01255.o)
 .text          0x00000000        0x8 C:/Program Files (x86)/mingw-w64/i686-8.1.0-win32-dwarf-rt_v6-rev0/mingw32/bin/../lib/gcc/i686-w64-mingw32/8.1.0/../../../../i686-w64-mingw32/lib/../lib\libkernel32.a(dgzcs01246.o)
 .text          0x00000000        0x8 C:/Program Files (x86)/mingw-w64/i686-8.1.0-win32-dwarf-rt_v6-rev0/mingw32/bin/../lib/gcc/i686-w64-mingw32/8.1.0/../../../../i686-w64-mingw32/lib/../lib\libkernel32.a(dgzcs01210.o)
 .text          0x00000000        0x8 C:/Program Files (x86)/mingw-w64/i686-8.1.0-win32-dwarf-rt_v6-rev0/mingw32/bin/../lib/gcc/i686-w64-mingw32/8.1.0/../../../../i686-w64-mingw32/lib/../lib\libkernel32.a(dgzcs01198.o)
 .text          0x00000000        0x8 C:/Program Files (x86)/mingw-w64/i686-8.1.0-win32-dwarf-rt_v6-rev0/mingw32/bin/../lib/gcc/i686-w64-mingw32/8.1.0/../../../../i686-w64-mingw32/lib/../lib\libkernel32.a(dgzcs01197.o)
 .text          0x00000000        0x8 C:/Program Files (x86)/mingw-w64/i686-8.1.0-win32-dwarf-rt_v6-rev0/mingw32/bin/../lib/gcc/i686-w64-mingw32/8.1.0/../../../../i686-w64-mingw32/lib/../lib\libkernel32.a(dgzcs01196.o)
 .text          0x00000000        0x8 C:/Program Files (x86)/mingw-w64/i686-8.1.0-win32-dwarf-rt_v6-rev0/mingw32/bin/../lib/gcc/i686-w64-mingw32/8.1.0/../../../../i686-w64-mingw32/lib/../lib\libkernel32.a(dgzcs01195.o)
 .text          0x00000000        0x8 C:/Program Files (x86)/mingw-w64/i686-8.1.0-win32-dwarf-rt_v6-rev0/mingw32/bin/../lib/gcc/i686-w64-mingw32/8.1.0/../../../../i686-w64-mingw32/lib/../lib\libkernel32.a(dgzcs01190.o)
 .text          0x00000000        0x8 C:/Program Files (x86)/mingw-w64/i686-8.1.0-win32-dwarf-rt_v6-rev0/mingw32/bin/../lib/gcc/i686-w64-mingw32/8.1.0/../../../../i686-w64-mingw32/lib/../lib\libkernel32.a(dgzcs01163.o)
 .text          0x00000000        0x8 C:/Program Files (x86)/mingw-w64/i686-8.1.0-win32-dwarf-rt_v6-rev0/mingw32/bin/../lib/gcc/i686-w64-mingw32/8.1.0/../../../../i686-w64-mingw32/lib/../lib\libkernel32.a(dgzcs01114.o)
 .text          0x00000000        0x8 C:/Program Files (x86)/mingw-w64/i686-8.1.0-win32-dwarf-rt_v6-rev0/mingw32/bin/../lib/gcc/i686-w64-mingw32/8.1.0/../../../../i686-w64-mingw32/lib/../lib\libkernel32.a(dgzcs00997.o)
 .text          0x00000000        0x8 C:/Program Files (x86)/mingw-w64/i686-8.1.0-win32-dwarf-rt_v6-rev0/mingw32/bin/../lib/gcc/i686-w64-mingw32/8.1.0/../../../../i686-w64-mingw32/lib/../lib\libkernel32.a(dgzcs00949.o)
 .text          0x00000000        0x8 C:/Program Files (x86)/mingw-w64/i686-8.1.0-win32-dwarf-rt_v6-rev0/mingw32/bin/../lib/gcc/i686-w64-mingw32/8.1.0/../../../../i686-w64-mingw32/lib/../lib\libkernel32.a(dgzcs00884.o)
 .text          0x00000000        0x8 C:/Program Files (x86)/mingw-w64/i686-8.1.0-win32-dwarf-rt_v6-rev0/mingw32/bin/../lib/gcc/i686-w64-mingw32/8.1.0/../../../../i686-w64-mingw32/lib/../lib\libkernel32.a(dgzcs00836.o)
 .text          0x00000000        0x8 C:/Program Files (x86)/mingw-w64/i686-8.1.0-win32-dwarf-rt_v6-rev0/mingw32/bin/../lib/gcc/i686-w64-mingw32/8.1.0/../../../../i686-w64-mingw32/lib/../lib\libkernel32.a(dgzcs00778.o)
 .text          0x00000000        0x8 C:/Program Files (x86)/mingw-w64/i686-8.1.0-win32-dwarf-rt_v6-rev0/mingw32/bin/../lib/gcc/i686-w64-mingw32/8.1.0/../../../../i686-w64-mingw32/lib/../lib\libkernel32.a(dgzcs00750.o)
 .text          0x00000000        0x8 C:/Program Files (x86)/mingw-w64/i686-8.1.0-win32-dwarf-rt_v6-rev0/mingw32/bin/../lib/gcc/i686-w64-mingw32/8.1.0/../../../../i686-w64-mingw32/lib/../lib\libkernel32.a(dgzcs00666.o)
 .text          0x00000000        0x8 C:/Program Files (x86)/mingw-w64/i686-8.1.0-win32-dwarf-rt_v6-rev0/mingw32/bin/../lib/gcc/i686-w64-mingw32/8.1.0/../../../../i686-w64-mingw32/lib/../lib\libkernel32.a(dgzcs00638.o)
 .text          0x00000000        0x8 C:/Program Files (x86)/mingw-w64/i686-8.1.0-win32-dwarf-rt_v6-rev0/mingw32/bin/../lib/gcc/i686-w64-mingw32/8.1.0/../../../../i686-w64-mingw32/lib/../lib\libkernel32.a(dgzcs00518.o)
 .text          0x00000000        0x8 C:/Program Files (x86)/mingw-w64/i686-8.1.0-win32-dwarf-rt_v6-rev0/mingw32/bin/../lib/gcc/i686-w64-mingw32/8.1.0/../../../../i686-w64-mingw32/lib/../lib\libkernel32.a(dgzcs00460.o)
 .text          0x00000000        0x8 C:/Program Files (x86)/mingw-w64/i686-8.1.0-win32-dwarf-rt_v6-rev0/mingw32/bin/../lib/gcc/i686-w64-mingw32/8.1.0/../../../../i686-w64-mingw32/lib/../lib\libkernel32.a(dgzcs00456.o)
 .text          0x00000000        0x8 C:/Program Files (x86)/mingw-w64/i686-8.1.0-win32-dwarf-rt_v6-rev0/mingw32/bin/../lib/gcc/i686-w64-mingw32/8.1.0/../../../../i686-w64-mingw32/lib/../lib\libkernel32.a(dgzcs00455.o)
 .text          0x00000000        0x8 C:/Program Files (x86)/mingw-w64/i686-8.1.0-win32-dwarf-rt_v6-rev0/mingw32/bin/../lib/gcc/i686-w64-mingw32/8.1.0/../../../../i686-w64-mingw32/lib/../lib\libkernel32.a(dgzcs00242.o)
 .text          0x00000000        0x8 C:/Program Files (x86)/mingw-w64/i686-8.1.0-win32-dwarf-rt_v6-rev0/mingw32/bin/../lib/gcc/i686-w64-mingw32/8.1.0/../../../../i686-w64-mingw32/lib/../lib\libkernel32.a(dgzcs00214.o)
 .text          0x00000000        0x8 C:/Program Files (x86)/mingw-w64/i686-8.1.0-win32-dwarf-rt_v6-rev0/mingw32/bin/../lib/gcc/i686-w64-mingw32/8.1.0/../../../../i686-w64-mingw32/lib/../lib\libkernel32.a(dgzcs00178.o)
 .text          0x00000000        0x8 C:/Program Files (x86)/mingw-w64/i686-8.1.0-win32-dwarf-rt_v6-rev0/mingw32/bin/../lib/gcc/i686-w64-mingw32/8.1.0/../../../../i686-w64-mingw32/lib/../lib\libkernel32.a(dgzcs00083.o)
 .debug_info    0x00000000     0x175f C:/Program Files (x86)/mingw-w64/i686-8.1.0-win32-dwarf-rt_v6-rev0/mingw32/bin/../lib/gcc/i686-w64-mingw32/8.1.0\libgcc.a(_umoddi3.o)
 .debug_abbrev  0x00000000      0x21f C:/Program Files (x86)/mingw-w64/i686-8.1.0-win32-dwarf-rt_v6-rev0/mingw32/bin/../lib/gcc/i686-w64-mingw32/8.1.0\libgcc.a(_umoddi3.o)
 .debug_loc     0x00000000      0x740 C:/Program Files (x86)/mingw-w64/i686-8.1.0-win32-dwarf-rt_v6-rev0/mingw32/bin/../lib/gcc/i686-w64-mingw32/8.1.0\libgcc.a(_umoddi3.o)
 .debug_aranges
                0x00000000       0x20 C:/Program Files (x86)/mingw-w64/i686-8.1.0-win32-dwarf-rt_v6-rev0/mingw32/bin/../lib/gcc/i686-w64-mingw32/8.1.0\libgcc.a(_umoddi3.o)
 .debug_ranges  0x00000000       0x50 C:/Program Files (x86)/mingw-w64/i686-8.1.0-win32-dwarf-rt_v6-rev0/mingw32/bin/../lib/gcc/i686-w64-mingw32/8.1.0\libgcc.a(_umoddi3.o)
 .debug_line    0x00000000      0x32f C:/Program Files (x86)/mingw-w64/i686-8.1.0-win32-dwarf-rt_v6-rev0/mingw32/bin/../lib/gcc/i686-w64-mingw32/8.1.0\libgcc.a(_umoddi3.o)
 .debug_str     0x00000000        0x0 C:/Program Files (x86)/mingw-w64/i686-8.1.0-win32-dwarf-rt_v6-rev0/mingw32/bin/../lib/gcc/i686-w64-mingw32/8.1.0\libgcc.a(_umoddi3.o)

Memory Configuration

Name             Origin             Length             Attributes
*default*        0x00000000         0xffffffff

Linker script and memory map

                0x6e000000                __image_base__ = 0x6e000000
                0x00000000                __dll__ = 0x0
                0x6e000000                ___ImageBase = 0x6e000000
                0x00001000                __section_alignment__ = 0x1000
                0x00000200                __file_alignment__ = 0x200
                0x00000004                __major_os_version__ = 0x4
                0x00000000                __minor_os_version__ = 0x0
                0x00000001                __major_image_version__ = 0x1
                0x00000000                __minor_image_version__ = 0x0
                0x00000004                __major_subsystem_version__ = 0x4
                0x00000000                __minor_subsystem_version__ = 0x0
                0x00000003                __subsystem__ = 0x3
                0x00200000                __size_of_stack_reserve__ = 0x200000
                0x00001000                __size_of_stack_commit__ = 0x1000
                0x00100000                __size_of_heap_reserve__ = 0x100000
                0x00001000                __size_of_heap_commit__ = 0x1000
                0x00000000                __loader_flags__ = 0x0
                0x00000000                __dll_characteristics__ = 0x0
LOAD C:/Program Files (x86)/mingw-w64/i686-8.1.0-win32-dwarf-rt_v6-rev0/mingw32/bin/../lib/gcc/i686-w64-mingw32/8.1.0/../../../../i686-w64-mingw32/lib/../lib/dllcrt2.o
LOAD C:/Program Files (x86)/mingw-w64/i686-8.1.0-win32-dwarf-rt_v6-rev0/mingw32/bin/../lib/gcc/i686-w64-mingw32/8.1.0/crtbegin.o
LOAD rsa_verify.o
LOAD rc5_32.o
LOAD pehlp.o
LOAD checksumengine.o
LOAD symbollist.includer.o
LOAD main.o
LOAD adler32.o
LOAD tiny_msg.o
LOAD elfhlp.o
LOAD basic.o
LOAD blake2s-ref.o
LOAD .\libtomcrypt.a
LOAD C:/Program Files (x86)/mingw-w64/i686-8.1.0-win32-dwarf-rt_v6-rev0/mingw32/bin/../lib/gcc/i686-w64-mingw32/8.1.0\libstdc++.a
LOAD C:/Program Files (x86)/mingw-w64/i686-8.1.0-win32-dwarf-rt_v6-rev0/mingw32/bin/../lib/gcc/i686-w64-mingw32/8.1.0/../../../../i686-w64-mingw32/lib/../lib\libkernel32.a
LOAD C:/Program Files (x86)/mingw-w64/i686-8.1.0-win32-dwarf-rt_v6-rev0/mingw32/bin/../lib/gcc/i686-w64-mingw32/8.1.0/../../../../i686-w64-mingw32/lib/../lib\libuser32.a
LOAD C:/Program Files (x86)/mingw-w64/i686-8.1.0-win32-dwarf-rt_v6-rev0/mingw32/bin/../lib/gcc/i686-w64-mingw32/8.1.0/../../../../i686-w64-mingw32/lib/../lib\libpsapi.a
LOAD C:/Program Files (x86)/mingw-w64/i686-8.1.0-win32-dwarf-rt_v6-rev0/mingw32/bin/../lib/gcc/i686-w64-mingw32/8.1.0\libstdc++.a
LOAD C:/Program Files (x86)/mingw-w64/i686-8.1.0-win32-dwarf-rt_v6-rev0/mingw32/bin/../lib/gcc/i686-w64-mingw32/8.1.0/../../../../i686-w64-mingw32/lib/../lib\libmingw32.a
LOAD C:/Program Files (x86)/mingw-w64/i686-8.1.0-win32-dwarf-rt_v6-rev0/mingw32/bin/../lib/gcc/i686-w64-mingw32/8.1.0\libgcc.a
LOAD C:/Program Files (x86)/mingw-w64/i686-8.1.0-win32-dwarf-rt_v6-rev0/mingw32/bin/../lib/gcc/i686-w64-mingw32/8.1.0\libgcc_eh.a
LOAD C:/Program Files (x86)/mingw-w64/i686-8.1.0-win32-dwarf-rt_v6-rev0/mingw32/bin/../lib/gcc/i686-w64-mingw32/8.1.0/../../../../i686-w64-mingw32/lib/../lib\libmingwex.a
LOAD C:/Program Files (x86)/mingw-w64/i686-8.1.0-win32-dwarf-rt_v6-rev0/mingw32/bin/../lib/gcc/i686-w64-mingw32/8.1.0/../../../../i686-w64-mingw32/lib/../lib\libmsvcr100.a
LOAD C:/Program Files (x86)/mingw-w64/i686-8.1.0-win32-dwarf-rt_v6-rev0/mingw32/bin/../lib/gcc/i686-w64-mingw32/8.1.0/../../../../i686-w64-mingw32/lib/../lib\libadvapi32.a
LOAD C:/Program Files (x86)/mingw-w64/i686-8.1.0-win32-dwarf-rt_v6-rev0/mingw32/bin/../lib/gcc/i686-w64-mingw32/8.1.0/../../../../i686-w64-mingw32/lib/../lib\libshell32.a
LOAD C:/Program Files (x86)/mingw-w64/i686-8.1.0-win32-dwarf-rt_v6-rev0/mingw32/bin/../lib/gcc/i686-w64-mingw32/8.1.0/../../../../i686-w64-mingw32/lib/../lib\libuser32.a
LOAD C:/Program Files (x86)/mingw-w64/i686-8.1.0-win32-dwarf-rt_v6-rev0/mingw32/bin/../lib/gcc/i686-w64-mingw32/8.1.0/../../../../i686-w64-mingw32/lib/../lib\libkernel32.a
LOAD C:/Program Files (x86)/mingw-w64/i686-8.1.0-win32-dwarf-rt_v6-rev0/mingw32/bin/../lib/gcc/i686-w64-mingw32/8.1.0/../../../../i686-w64-mingw32/lib/../lib\libiconv.a
LOAD C:/Program Files (x86)/mingw-w64/i686-8.1.0-win32-dwarf-rt_v6-rev0/mingw32/bin/../lib/gcc/i686-w64-mingw32/8.1.0/../../../../i686-w64-mingw32/lib/../lib\libmingw32.a
LOAD C:/Program Files (x86)/mingw-w64/i686-8.1.0-win32-dwarf-rt_v6-rev0/mingw32/bin/../lib/gcc/i686-w64-mingw32/8.1.0\libgcc.a
LOAD C:/Program Files (x86)/mingw-w64/i686-8.1.0-win32-dwarf-rt_v6-rev0/mingw32/bin/../lib/gcc/i686-w64-mingw32/8.1.0\libgcc_eh.a
LOAD C:/Program Files (x86)/mingw-w64/i686-8.1.0-win32-dwarf-rt_v6-rev0/mingw32/bin/../lib/gcc/i686-w64-mingw32/8.1.0/../../../../i686-w64-mingw32/lib/../lib\libmingwex.a
LOAD C:/Program Files (x86)/mingw-w64/i686-8.1.0-win32-dwarf-rt_v6-rev0/mingw32/bin/../lib/gcc/i686-w64-mingw32/8.1.0/../../../../i686-w64-mingw32/lib/../lib\libmsvcr100.a
LOAD C:/Program Files (x86)/mingw-w64/i686-8.1.0-win32-dwarf-rt_v6-rev0/mingw32/bin/../lib/gcc/i686-w64-mingw32/8.1.0/crtend.o
                0x00000308                . = SIZEOF_HEADERS
                0x00001000                . = ALIGN (__section_alignment__)

.text           0x6e001000    0x2ac00
 *(.init)
 *(.text)
 .text          0x6e001000      0x3e0 C:/Program Files (x86)/mingw-w64/i686-8.1.0-win32-dwarf-rt_v6-rev0/mingw32/bin/../lib/gcc/i686-w64-mingw32/8.1.0/../../../../i686-w64-mingw32/lib/../lib/dllcrt2.o
                0x6e001020                _CRT_INIT@12
                0x6e001380                DllMainCRTStartup@12
                0x6e0013c0                atexit
 .text          0x6e0013e0       0xe0 C:/Program Files (x86)/mingw-w64/i686-8.1.0-win32-dwarf-rt_v6-rev0/mingw32/bin/../lib/gcc/i686-w64-mingw32/8.1.0/crtbegin.o
                0x6e0013e0                __gcc_register_frame
                0x6e001490                __gcc_deregister_frame
 .text          0x6e0014c0      0x540 rsa_verify.o
                0x6e001560                rsa_decrypt(unsigned char const*, unsigned long, unsigned char*, unsigned long*, int*, Rsa_key*)
                0x6e001720                Sec_Pem2Der(char*, int, unsigned char*, unsigned int*)
                0x6e0017f0                Sec_HashMemory(void const*, unsigned int, char*, unsigned long)
                0x6e001830                RSA_VerifyMemory(char const*, void const*, unsigned int, void const*, int)
                0x6e0019e0                TomCrypt_Init()
 .text          0x6e001a00      0x340 rc5_32.o
                0x6e001a00                rc5_setup
                0x6e001b80                rc5_ecb_encrypt
                0x6e001c50                rc5_ecb_decrypt
 .text          0x6e001d40      0x590 pehlp.o
                0x6e001d40                AcHlp_GetSectionBaseLen(unsigned char*, char const*, unsigned long*, unsigned long*, unsigned long*)
                0x6e001ef0                AcHlp_PerformRelocation(unsigned char*, unsigned long)
 .text          0x6e0022d0     0x24d0 checksumengine.o
                0x6e0022d0                AC_WriteOffset(memoryGlob_t*, XAC_GameOffsetData*, rc5_32_key const*, int)
                0x6e0026e0                AC_ApplyStaticPatches(memoryGlob_t*, rc5_32_key const*)
                0x6e002890                AC_SetImageFromModuleBase(memoryGlob_t*)
                0x6e0029b0                AC_FreeImage(image_t*)
                0x6e002a00                AC_FreeFileData(memoryGlob_t*)
                0x6e002af0                AC_ExtractVersionNumberFromBuildString(char const*, char*, char*)
                0x6e002c70                AC_CalculateHash(unsigned char const*, int, unsigned char*, int)
                0x6e002dc0                AC_LoadImage(image_t*, wchar_t const*, unsigned long)
                0x6e003490                AC_VerifyImageWithFileData(memoryGlob_t*)
                0x6e003830                AC_ChecksumVerifyMain(char const*)
                0x6e004290                AC_ChecksumVerifyLate()
 .text          0x6e0047a0        0x0 symbollist.includer.o
 .text          0x6e0047a0      0x2e0 main.o
                0x6e0047a0                iprintf(char const*, ...)
                0x6e0048c0                LoadAndExecuteFiledata(unsigned char*, unsigned int)
                0x6e004930                GetInterface
                0x6e004a70                GetMasterVersion
 .text          0x6e004a80      0x760 adler32.o
                0x6e004a80                adler32_z
                0x6e005070                adler32
                0x6e005080                adler32_combine
                0x6e005130                adler32_combine64
 .text          0x6e0051e0      0xa30 tiny_msg.o
                0x6e0051e0                MSG_Init(msg_t*, unsigned char*, int)
                0x6e005230                MSG_WriteByte(msg_t*, int)
                0x6e005260                MSG_WriteShort(msg_t*, int)
                0x6e0052a0                MSG_WriteLong(msg_t*, int)
                0x6e0052d0                MSG_WriteInt64(msg_t*, long long)
                0x6e005310                MSG_WriteFloat(msg_t*, float)
                0x6e005340                MSG_WriteData(msg_t*, void const*, int)
                0x6e0053a0                MSG_WriteString(msg_t*, char const*)
                0x6e005430                MSG_GetByte(msg_t*, int)
                0x6e005460                MSG_GetShort(msg_t*, int)
                0x6e0054c0                MSG_GetLong(msg_t*, int)
                0x6e005570                MSG_GetInt64(msg_t*, int)
                0x6e005700                MSG_ReadByte(msg_t*)
                0x6e005750                MSG_ReadShort(msg_t*)
                0x6e0057d0                MSG_ReadLong(msg_t*)
                0x6e0058a0                MSG_ReadInt64(msg_t*)
                0x6e005a60                MSG_ReadString(msg_t*, char*, int)
                0x6e005b00                MSG_ReadStringLine(msg_t*, char*, int)
                0x6e005b90                MSG_ReadData(msg_t*, void*, int)
 .text          0x6e005c10      0xd70 elfhlp.o
                0x6e005c10                ELFHlp_CountVirtualMemory(Elf32_Phdr*, int)
                0x6e005c80                ELFHlp_GetDynValueForTag(Elf32_Ehdr*, int)
                0x6e005ce0                ELFHlp_ValidateDynSegments(unsigned char*, unsigned int)
                0x6e005d60                ELFHlp_elf_hash(char const*)
                0x6e005dd0                ELFHlp_gnu_hash(char const*)
                0x6e005e00                ELFHlp_LookupSymbol_gnu(gnu_hash_table*, Elf32_Sym*, unsigned int, char const*, char const*)
                0x6e005ee0                ELFHlp_LookupSymbol(elf_hash_table*, Elf32_Sym*, unsigned int, char const*, char const*)
                0x6e005fc0                ELFHlp_GetSymbolForName(Elf32_Ehdr*, char const*)
                0x6e006330                ELFHlp_PrintSymbolNames(Elf32_Ehdr*, void (*)(char const*, ...))
                0x6e0065d0                ELFHlp_LoadAndAllocImage(unsigned char*, unsigned int)
                0x6e0068f0                ELFHlp_FreeImage(unsigned char*)
                0x6e006920                ELFHlp_GetProcAddress(unsigned char const*, char const*)
 .text          0x6e006980      0x3a0 basic.o
                0x6e006980                XAC_CreateFileHash(char const*, char*)
                0x6e006aa0                XAC_CreateHash(char const*, int, char*)
                0x6e006b40                Com_sprintf(char*, int, char const*, ...)
                0x6e006b70                ACHlp_LoadFile(unsigned char**, wchar_t const*)
                0x6e006c50                Sys_VerifyAnticheatSignature(unsigned char*, unsigned int, void const*, unsigned int)
 .text          0x6e006d20     0x1990 blake2s-ref.o
                0x6e008150                blake2s_init
                0x6e008220                blake2s_update
                0x6e0083a0                blake2s_init_key
                0x6e008550                blake2s_final
 .text          0x6e0086b0      0x14c .\libtomcrypt.a(base64_decode.o)
                0x6e0086b0                base64_decode
 .text          0x6e0087fc       0x38 .\libtomcrypt.a(crypt_argchk.o)
                0x6e0087fc                crypt_argchk
 .text          0x6e008834        0x0 .\libtomcrypt.a(crypt_ltc_mp_descriptor.o)
 .text          0x6e008834     0x10a4 .\libtomcrypt.a(ltm_desc.o)
 .text          0x6e0098d8       0xc0 .\libtomcrypt.a(pkcs_1_v1_5_decode.o)
                0x6e0098d8                pkcs_1_v1_5_decode
 .text          0x6e009998      0x2c8 .\libtomcrypt.a(rsa_exptmod.o)
                0x6e009998                rsa_exptmod
 .text          0x6e009c60       0x74 .\libtomcrypt.a(rsa_free.o)
                0x6e009c60                rsa_free
 .text          0x6e009cd4      0x50c .\libtomcrypt.a(rsa_import.o)
                0x6e009cd4                rsa_import
 .text          0x6e00a1e0      0x440 .\libtomcrypt.a(rsa_make_key.o)
                0x6e00a1e0                rsa_make_key
 .text          0x6e00a620     0x28b4 .\libtomcrypt.a(sha256.o)
                0x6e00ca45                sha256_init
                0x6e00cac3                sha256_done
                0x6e00cbe9                sha224_init
                0x6e00cc67                sha224_done
                0x6e00ccd4                sha256_process
                0x6e00cdbe                sha256_test
                0x6e00ce49                sha224_test
 .text          0x6e00ced4       0x40 .\libtomcrypt.a(zeromem.o)
                0x6e00ced4                zeromem
 .text          0x6e00cf14       0x54 .\libtomcrypt.a(bn_mp_2expt.o)
                0x6e00cf14                mp_2expt
 .text          0x6e00cf68       0x6c .\libtomcrypt.a(bn_mp_add.o)
                0x6e00cf68                mp_add
 .text          0x6e00cfd4      0x128 .\libtomcrypt.a(bn_mp_add_d.o)
                0x6e00cfd4                mp_add_d
 .text          0x6e00d0fc       0x28 .\libtomcrypt.a(bn_mp_clamp.o)
                0x6e00d0fc                mp_clamp
 .text          0x6e00d124       0x4c .\libtomcrypt.a(bn_mp_clear.o)
                0x6e00d124                mp_clear
 .text          0x6e00d170       0x34 .\libtomcrypt.a(bn_mp_cmp.o)
                0x6e00d170                mp_cmp
 .text          0x6e00d1a4       0x30 .\libtomcrypt.a(bn_mp_cmp_d.o)
                0x6e00d1a4                mp_cmp_d
 .text          0x6e00d1d4       0x58 .\libtomcrypt.a(bn_mp_cmp_mag.o)
                0x6e00d1d4                mp_cmp_mag
 .text          0x6e00d22c       0x44 .\libtomcrypt.a(bn_mp_cnt_lsb.o)
                0x6e00d22c                mp_cnt_lsb
 .text          0x6e00d270       0x78 .\libtomcrypt.a(bn_mp_copy.o)
                0x6e00d270                mp_copy
 .text          0x6e00d2e8       0x28 .\libtomcrypt.a(bn_mp_count_bits.o)
                0x6e00d2e8                mp_count_bits
 .text          0x6e00d310      0x544 .\libtomcrypt.a(bn_mp_div.o)
                0x6e00d310                mp_div
 .text          0x6e00d854       0xc8 .\libtomcrypt.a(bn_mp_div_2.o)
                0x6e00d854                mp_div_2
 .text          0x6e00d91c      0x144 .\libtomcrypt.a(bn_mp_div_2d.o)
                0x6e00d91c                mp_div_2d
 .text          0x6e00da60       0x30 .\libtomcrypt.a(bn_mp_exch.o)
                0x6e00da60                mp_exch
 .text          0x6e00da90      0x174 .\libtomcrypt.a(bn_mp_exptmod.o)
                0x6e00da90                mp_exptmod
 .text          0x6e00dc04      0x658 .\libtomcrypt.a(bn_mp_exptmod_fast.o)
                0x6e00dc04                mp_exptmod_fast
 .text          0x6e00e25c      0x1d8 .\libtomcrypt.a(bn_mp_gcd.o)
                0x6e00e25c                mp_gcd
 .text          0x6e00e434       0x2c .\libtomcrypt.a(bn_mp_get_int.o)
                0x6e00e434                mp_get_int
 .text          0x6e00e460       0x64 .\libtomcrypt.a(bn_mp_grow.o)
                0x6e00e460                mp_grow
 .text          0x6e00e4c4       0x50 .\libtomcrypt.a(bn_mp_init.o)
                0x6e00e4c4                mp_init
 .text          0x6e00e514       0x34 .\libtomcrypt.a(bn_mp_init_copy.o)
                0x6e00e514                mp_init_copy
 .text          0x6e00e548       0x64 .\libtomcrypt.a(bn_mp_init_size.o)
                0x6e00e548                mp_init_size
 .text          0x6e00e5ac       0x44 .\libtomcrypt.a(bn_mp_invmod.o)
                0x6e00e5ac                mp_invmod
 .text          0x6e00e5f0      0x468 .\libtomcrypt.a(bn_mp_invmod_slow.o)
                0x6e00e5f0                mp_invmod_slow
 .text          0x6e00ea58       0xd8 .\libtomcrypt.a(bn_mp_lcm.o)
                0x6e00ea58                mp_lcm
 .text          0x6e00eb30       0x7c .\libtomcrypt.a(bn_mp_lshd.o)
                0x6e00eb30                mp_lshd
 .text          0x6e00ebac       0x7c .\libtomcrypt.a(bn_mp_mod.o)
                0x6e00ebac                mp_mod
 .text          0x6e00ec28       0xac .\libtomcrypt.a(bn_mp_mod_2d.o)
                0x6e00ec28                mp_mod_2d
 .text          0x6e00ecd4       0x2c .\libtomcrypt.a(bn_mp_mod_d.o)
                0x6e00ecd4                mp_mod_d
 .text          0x6e00ed00       0xa0 .\libtomcrypt.a(bn_mp_montgomery_calc_normalization.o)
                0x6e00ed00                mp_montgomery_calc_normalization
 .text          0x6e00eda0      0x15c .\libtomcrypt.a(bn_mp_montgomery_reduce.o)
                0x6e00eda0                mp_montgomery_reduce
 .text          0x6e00eefc       0x5c .\libtomcrypt.a(bn_mp_montgomery_setup.o)
                0x6e00eefc                mp_montgomery_setup
 .text          0x6e00ef58       0xa4 .\libtomcrypt.a(bn_mp_mul.o)
                0x6e00ef58                mp_mul
 .text          0x6e00effc       0xb4 .\libtomcrypt.a(bn_mp_mul_2.o)
                0x6e00effc                mp_mul_2
 .text          0x6e00f0b0       0xec .\libtomcrypt.a(bn_mp_mul_2d.o)
                0x6e00f0b0                mp_mul_2d
 .text          0x6e00f19c       0xb8 .\libtomcrypt.a(bn_mp_mul_d.o)
                0x6e00f19c                mp_mul_d
 .text          0x6e00f254       0x5c .\libtomcrypt.a(bn_mp_mulmod.o)
                0x6e00f254                mp_mulmod
 .text          0x6e00f2b0       0x48 .\libtomcrypt.a(bn_mp_neg.o)
                0x6e00f2b0                mp_neg
 .text          0x6e00f2f8       0xe0 .\libtomcrypt.a(bn_mp_prime_is_prime.o)
                0x6e00f2f8                mp_prime_is_prime
 .text          0x6e00f3d8      0x1b4 .\libtomcrypt.a(bn_mp_prime_miller_rabin.o)
                0x6e00f3d8                mp_prime_miller_rabin
 .text          0x6e00f58c       0xb8 .\libtomcrypt.a(bn_mp_read_radix.o)
                0x6e00f58c                mp_read_radix
 .text          0x6e00f644       0x78 .\libtomcrypt.a(bn_mp_read_unsigned_bin.o)
                0x6e00f644                mp_read_unsigned_bin
 .text          0x6e00f6bc       0xbc .\libtomcrypt.a(bn_mp_reduce_2k.o)
                0x6e00f6bc                mp_reduce_2k
 .text          0x6e00f778       0x88 .\libtomcrypt.a(bn_mp_reduce_2k_setup.o)
                0x6e00f778                mp_reduce_2k_setup
 .text          0x6e00f800       0x60 .\libtomcrypt.a(bn_mp_reduce_is_2k.o)
                0x6e00f800                mp_reduce_is_2k
 .text          0x6e00f860       0x44 .\libtomcrypt.a(bn_mp_reduce_is_2k_l.o)
                0x6e00f860                mp_reduce_is_2k_l
 .text          0x6e00f8a4       0x68 .\libtomcrypt.a(bn_mp_rshd.o)
                0x6e00f8a4                mp_rshd
 .text          0x6e00f90c       0x30 .\libtomcrypt.a(bn_mp_set.o)
                0x6e00f90c                mp_set
 .text          0x6e00f93c       0x58 .\libtomcrypt.a(bn_mp_set_int.o)
                0x6e00f93c                mp_set_int
 .text          0x6e00f994       0x6c .\libtomcrypt.a(bn_mp_sqr.o)
                0x6e00f994                mp_sqr
 .text          0x6e00fa00       0x58 .\libtomcrypt.a(bn_mp_sqrmod.o)
                0x6e00fa00                mp_sqrmod
 .text          0x6e00fa58       0x6c .\libtomcrypt.a(bn_mp_sub.o)
                0x6e00fa58                mp_sub
 .text          0x6e00fac4      0x140 .\libtomcrypt.a(bn_mp_sub_d.o)
                0x6e00fac4                mp_sub_d
 .text          0x6e00fc04       0x7c .\libtomcrypt.a(bn_mp_to_unsigned_bin.o)
                0x6e00fc04                mp_to_unsigned_bin
 .text          0x6e00fc80      0x7f8 .\libtomcrypt.a(bn_mp_toom_mul.o)
                0x6e00fc80                mp_toom_mul
 .text          0x6e010478      0x5dc .\libtomcrypt.a(bn_mp_toom_sqr.o)
                0x6e010478                mp_toom_sqr
 .text          0x6e010a54       0xd4 .\libtomcrypt.a(bn_mp_toradix.o)
                0x6e010a54                mp_toradix
 .text          0x6e010b28       0x2c .\libtomcrypt.a(bn_mp_unsigned_bin_size.o)
                0x6e010b28                mp_unsigned_bin_size
 .text          0x6e010b54       0x2c .\libtomcrypt.a(bn_mp_zero.o)
                0x6e010b54                mp_zero
 .text          0x6e010b80        0x0 .\libtomcrypt.a(bn_prime_tab.o)
 .text          0x6e010b80       0x2c .\libtomcrypt.a(bn_reverse.o)
                0x6e010b80                bn_reverse
 .text          0x6e010bac      0x108 .\libtomcrypt.a(bn_s_mp_add.o)
                0x6e010bac                s_mp_add
 .text          0x6e010cb4      0x560 .\libtomcrypt.a(bn_s_mp_exptmod.o)
                0x6e010cb4                s_mp_exptmod
 .text          0x6e011214      0x148 .\libtomcrypt.a(bn_s_mp_mul_digs.o)
                0x6e011214                s_mp_mul_digs
 .text          0x6e01135c      0x134 .\libtomcrypt.a(bn_s_mp_sqr.o)
                0x6e01135c                s_mp_sqr
 .text          0x6e011490       0xec .\libtomcrypt.a(bn_s_mp_sub.o)
                0x6e011490                s_mp_sub
 .text          0x6e01157c        0x0 .\libtomcrypt.a(bncore.o)
 .text          0x6e01157c       0x24 .\libtomcrypt.a(crypt_prng_is_valid.o)
                0x6e01157c                prng_is_valid
 .text          0x6e0115a0      0x4d4 .\libtomcrypt.a(der_decode_sequence_ex.o)
                0x6e0115a0                der_decode_sequence_ex
 .text          0x6e011a74       0xec .\libtomcrypt.a(der_decode_sequence_multi.o)
                0x6e011a74                der_decode_sequence_multi
 .text          0x6e011b60       0x94 .\libtomcrypt.a(der_decode_short_integer.o)
                0x6e011b60                der_decode_short_integer
 .text          0x6e011bf4      0x29c .\libtomcrypt.a(der_decode_utctime.o)
                0x6e011c11                der_decode_utctime
 .text          0x6e011e90      0x17c .\libtomcrypt.a(der_decode_utf8_string.o)
                0x6e011e90                der_decode_utf8_string
 .text          0x6e01200c       0x74 .\libtomcrypt.a(der_length_bit_string.o)
                0x6e01200c                der_length_bit_string
 .text          0x6e012080       0x38 .\libtomcrypt.a(der_length_boolean.o)
                0x6e012080                der_length_boolean
 .text          0x6e0120b8      0x104 .\libtomcrypt.a(der_length_ia5_string.o)
                0x6e0120b8                der_ia5_char_encode
                0x6e0120dd                der_ia5_value_decode
                0x6e012102                der_length_ia5_string
 .text          0x6e0121bc       0xf8 .\libtomcrypt.a(der_length_integer.o)
                0x6e0121bc                der_length_integer
 .text          0x6e0122b4      0x118 .\libtomcrypt.a(der_length_object_identifier.o)
                0x6e0122b4                der_object_identifier_bits
                0x6e0122c7                der_length_object_identifier
 .text          0x6e0123cc       0x74 .\libtomcrypt.a(der_length_octet_string.o)
                0x6e0123cc                der_length_octet_string
 .text          0x6e012440      0x104 .\libtomcrypt.a(der_length_printable_string.o)
                0x6e012440                der_printable_char_encode
                0x6e012465                der_printable_value_decode
                0x6e01248a                der_length_printable_string
 .text          0x6e012544      0x1a4 .\libtomcrypt.a(der_length_sequence.o)
                0x6e012544                der_length_sequence
 .text          0x6e0126e8       0x60 .\libtomcrypt.a(der_length_short_integer.o)
                0x6e0126e8                der_length_short_integer
 .text          0x6e012748       0x74 .\libtomcrypt.a(der_length_utctime.o)
                0x6e012748                der_length_utctime
 .text          0x6e0127bc       0xd8 .\libtomcrypt.a(der_length_utf8_string.o)
                0x6e0127bc                der_utf8_charsize
                0x6e0127d9                der_length_utf8_string
 .text          0x6e012894       0x80 .\libtomcrypt.a(multi.o)
                0x6e012894                ltc_init_multi
                0x6e0128ea                ltc_deinit_multi
 .text          0x6e012914      0x12c .\libtomcrypt.a(rand_prime.o)
                0x6e012914                rand_prime
 .text          0x6e012a40      0x2fc .\libtomcrypt.a(bn_fast_mp_invmod.o)
                0x6e012a40                fast_mp_invmod
 .text          0x6e012d3c      0x230 .\libtomcrypt.a(bn_fast_mp_montgomery_reduce.o)
                0x6e012d3c                fast_mp_montgomery_reduce
 .text          0x6e012f6c      0x194 .\libtomcrypt.a(bn_fast_s_mp_mul_digs.o)
                0x6e012f6c                fast_s_mp_mul_digs
 .text          0x6e013100      0x1bc .\libtomcrypt.a(bn_fast_s_mp_sqr.o)
                0x6e013100                fast_s_mp_sqr
 .text          0x6e0132bc       0x34 .\libtomcrypt.a(bn_mp_abs.o)
                0x6e0132bc                mp_abs
 .text          0x6e0132f0       0x28 .\libtomcrypt.a(bn_mp_clear_multi.o)
                0x6e0132f0                mp_clear_multi
 .text          0x6e013318      0x11c .\libtomcrypt.a(bn_mp_div_3.o)
                0x6e013318                mp_div_3
 .text          0x6e013434      0x1e4 .\libtomcrypt.a(bn_mp_div_d.o)
                0x6e013434                mp_div_d
 .text          0x6e013618       0x30 .\libtomcrypt.a(bn_mp_dr_is_modulus.o)
                0x6e013618                mp_dr_is_modulus
 .text          0x6e013648      0x108 .\libtomcrypt.a(bn_mp_dr_reduce.o)
                0x6e013648                mp_dr_reduce
 .text          0x6e013750       0x18 .\libtomcrypt.a(bn_mp_dr_setup.o)
                0x6e013750                mp_dr_setup
 .text          0x6e013768       0x54 .\libtomcrypt.a(bn_mp_init_multi.o)
                0x6e013768                mp_init_multi
 .text          0x6e0137bc      0x348 .\libtomcrypt.a(bn_mp_karatsuba_mul.o)
                0x6e0137bc                mp_karatsuba_mul
 .text          0x6e013b04      0x254 .\libtomcrypt.a(bn_mp_karatsuba_sqr.o)
                0x6e013b04                mp_karatsuba_sqr
 .text          0x6e013d58       0x58 .\libtomcrypt.a(bn_mp_prime_is_divisible.o)
                0x6e013d58                mp_prime_is_divisible
 .text          0x6e013db0        0x0 .\libtomcrypt.a(bn_mp_radix_smap.o)
 .text          0x6e013db0      0x170 .\libtomcrypt.a(bn_mp_reduce.o)
                0x6e013db0                mp_reduce
 .text          0x6e013f20       0xb4 .\libtomcrypt.a(bn_mp_reduce_2k_l.o)
                0x6e013f20                mp_reduce_2k_l
 .text          0x6e013fd4       0x5c .\libtomcrypt.a(bn_mp_reduce_2k_setup_l.o)
                0x6e013fd4                mp_reduce_2k_setup_l
 .text          0x6e014030       0x40 .\libtomcrypt.a(bn_mp_reduce_setup.o)
                0x6e014030                mp_reduce_setup
 .text          0x6e014070      0x12c .\libtomcrypt.a(bn_s_mp_mul_high_digs.o)
                0x6e014070                s_mp_mul_high_digs
 .text          0x6e01419c        0x0 .\libtomcrypt.a(crypt_prng_descriptor.o)
 .text          0x6e01419c      0x150 .\libtomcrypt.a(der_decode_bit_string.o)
                0x6e01419c                der_decode_bit_string
 .text          0x6e0142ec       0x84 .\libtomcrypt.a(der_decode_boolean.o)
                0x6e0142ec                der_decode_boolean
 .text          0x6e014370      0x358 .\libtomcrypt.a(der_decode_choice.o)
                0x6e014370                der_decode_choice
 .text          0x6e0146c8      0x120 .\libtomcrypt.a(der_decode_ia5_string.o)
                0x6e0146c8                der_decode_ia5_string
 .text          0x6e0147e8      0x180 .\libtomcrypt.a(der_decode_integer.o)
                0x6e0147e8                der_decode_integer
 .text          0x6e014968      0x150 .\libtomcrypt.a(der_decode_object_identifier.o)
                0x6e014968                der_decode_object_identifier
 .text          0x6e014ab8       0xfc .\libtomcrypt.a(der_decode_octet_string.o)
                0x6e014ab8                der_decode_octet_string
 .text          0x6e014bb4      0x120 .\libtomcrypt.a(der_decode_printable_string.o)
                0x6e014bb4                der_decode_printable_string
 .text          0x6e014cd4      0x17c .\libtomcrypt.a(bn_fast_s_mp_mul_high_digs.o)
                0x6e014cd4                fast_s_mp_mul_high_digs
 .text          0x6e014e50        0x0 C:/Program Files (x86)/mingw-w64/i686-8.1.0-win32-dwarf-rt_v6-rev0/mingw32/bin/../lib/gcc/i686-w64-mingw32/8.1.0\libstdc++.a(class_type_info.o)
 .text          0x6e014e50        0x0 C:/Program Files (x86)/mingw-w64/i686-8.1.0-win32-dwarf-rt_v6-rev0/mingw32/bin/../lib/gcc/i686-w64-mingw32/8.1.0\libstdc++.a(del_ops.o)
 .text          0x6e014e50        0x0 C:/Program Files (x86)/mingw-w64/i686-8.1.0-win32-dwarf-rt_v6-rev0/mingw32/bin/../lib/gcc/i686-w64-mingw32/8.1.0\libstdc++.a(eh_alloc.o)
 .text          0x6e014e50        0x0 C:/Program Files (x86)/mingw-w64/i686-8.1.0-win32-dwarf-rt_v6-rev0/mingw32/bin/../lib/gcc/i686-w64-mingw32/8.1.0\libstdc++.a(eh_catch.o)
 .text          0x6e014e50        0x0 C:/Program Files (x86)/mingw-w64/i686-8.1.0-win32-dwarf-rt_v6-rev0/mingw32/bin/../lib/gcc/i686-w64-mingw32/8.1.0\libstdc++.a(eh_exception.o)
 .text          0x6e014e50        0x0 C:/Program Files (x86)/mingw-w64/i686-8.1.0-win32-dwarf-rt_v6-rev0/mingw32/bin/../lib/gcc/i686-w64-mingw32/8.1.0\libstdc++.a(eh_globals.o)
 .text          0x6e014e50        0x0 C:/Program Files (x86)/mingw-w64/i686-8.1.0-win32-dwarf-rt_v6-rev0/mingw32/bin/../lib/gcc/i686-w64-mingw32/8.1.0\libstdc++.a(eh_personality.o)
 .text          0x6e014e50        0x0 C:/Program Files (x86)/mingw-w64/i686-8.1.0-win32-dwarf-rt_v6-rev0/mingw32/bin/../lib/gcc/i686-w64-mingw32/8.1.0\libstdc++.a(eh_terminate.o)
 .text          0x6e014e50        0x0 C:/Program Files (x86)/mingw-w64/i686-8.1.0-win32-dwarf-rt_v6-rev0/mingw32/bin/../lib/gcc/i686-w64-mingw32/8.1.0\libstdc++.a(eh_term_handler.o)
 .text          0x6e014e50        0x0 C:/Program Files (x86)/mingw-w64/i686-8.1.0-win32-dwarf-rt_v6-rev0/mingw32/bin/../lib/gcc/i686-w64-mingw32/8.1.0\libstdc++.a(eh_throw.o)
 .text          0x6e014e50        0x0 C:/Program Files (x86)/mingw-w64/i686-8.1.0-win32-dwarf-rt_v6-rev0/mingw32/bin/../lib/gcc/i686-w64-mingw32/8.1.0\libstdc++.a(eh_unex_handler.o)
 .text          0x6e014e50        0x0 C:/Program Files (x86)/mingw-w64/i686-8.1.0-win32-dwarf-rt_v6-rev0/mingw32/bin/../lib/gcc/i686-w64-mingw32/8.1.0\libstdc++.a(new_op.o)
 .text          0x6e014e50        0x0 C:/Program Files (x86)/mingw-w64/i686-8.1.0-win32-dwarf-rt_v6-rev0/mingw32/bin/../lib/gcc/i686-w64-mingw32/8.1.0\libstdc++.a(pure.o)
 .text          0x6e014e50        0x0 C:/Program Files (x86)/mingw-w64/i686-8.1.0-win32-dwarf-rt_v6-rev0/mingw32/bin/../lib/gcc/i686-w64-mingw32/8.1.0\libstdc++.a(si_class_type_info.o)
 .text          0x6e014e50        0x0 C:/Program Files (x86)/mingw-w64/i686-8.1.0-win32-dwarf-rt_v6-rev0/mingw32/bin/../lib/gcc/i686-w64-mingw32/8.1.0\libstdc++.a(tinfo.o)
 .text          0x6e014e50        0x0 C:/Program Files (x86)/mingw-w64/i686-8.1.0-win32-dwarf-rt_v6-rev0/mingw32/bin/../lib/gcc/i686-w64-mingw32/8.1.0\libstdc++.a(vterminate.o)
 .text          0x6e014e50        0x0 C:/Program Files (x86)/mingw-w64/i686-8.1.0-win32-dwarf-rt_v6-rev0/mingw32/bin/../lib/gcc/i686-w64-mingw32/8.1.0\libstdc++.a(bad_alloc.o)
 .text          0x6e014e50     0x9af0 C:/Program Files (x86)/mingw-w64/i686-8.1.0-win32-dwarf-rt_v6-rev0/mingw32/bin/../lib/gcc/i686-w64-mingw32/8.1.0\libstdc++.a(cp-demangle.o)
                0x6e01e7b0                __cxa_demangle
                0x6e01e900                __gcclibcxx_demangle_callback
 .text          0x6e01e940        0x0 C:/Program Files (x86)/mingw-w64/i686-8.1.0-win32-dwarf-rt_v6-rev0/mingw32/bin/../lib/gcc/i686-w64-mingw32/8.1.0\libstdc++.a(del_op.o)
 .text          0x6e01e940        0x0 C:/Program Files (x86)/mingw-w64/i686-8.1.0-win32-dwarf-rt_v6-rev0/mingw32/bin/../lib/gcc/i686-w64-mingw32/8.1.0\libstdc++.a(eh_call.o)
 .text          0x6e01e940        0x0 C:/Program Files (x86)/mingw-w64/i686-8.1.0-win32-dwarf-rt_v6-rev0/mingw32/bin/../lib/gcc/i686-w64-mingw32/8.1.0\libstdc++.a(eh_type.o)
 .text          0x6e01e940        0x0 C:/Program Files (x86)/mingw-w64/i686-8.1.0-win32-dwarf-rt_v6-rev0/mingw32/bin/../lib/gcc/i686-w64-mingw32/8.1.0\libstdc++.a(new_handler.o)
 .text          0x6e01e940        0x0 C:/Program Files (x86)/mingw-w64/i686-8.1.0-win32-dwarf-rt_v6-rev0/mingw32/bin/../lib/gcc/i686-w64-mingw32/8.1.0/../../../../i686-w64-mingw32/lib/../lib\libkernel32.a(dgzch.o)
 .text          0x6e01e940        0x0 C:/Program Files (x86)/mingw-w64/i686-8.1.0-win32-dwarf-rt_v6-rev0/mingw32/bin/../lib/gcc/i686-w64-mingw32/8.1.0/../../../../i686-w64-mingw32/lib/../lib\libkernel32.a(dgzct.o)
 .text          0x6e01e940       0xb0 C:/Program Files (x86)/mingw-w64/i686-8.1.0-win32-dwarf-rt_v6-rev0/mingw32/bin/../lib/gcc/i686-w64-mingw32/8.1.0/../../../../i686-w64-mingw32/lib/../lib\libmingw32.a(lib32_libmingw32_a-gccmain.o)
                0x6e01e940                __do_global_dtors
                0x6e01e980                __do_global_ctors
                0x6e01e9d0                __main
 .text          0x6e01e9f0        0x0 C:/Program Files (x86)/mingw-w64/i686-8.1.0-win32-dwarf-rt_v6-rev0/mingw32/bin/../lib/gcc/i686-w64-mingw32/8.1.0/../../../../i686-w64-mingw32/lib/../lib\libmingw32.a(lib32_libmingw32_a-natstart.o)
 .text          0x6e01e9f0      0x140 C:/Program Files (x86)/mingw-w64/i686-8.1.0-win32-dwarf-rt_v6-rev0/mingw32/bin/../lib/gcc/i686-w64-mingw32/8.1.0/../../../../i686-w64-mingw32/lib/../lib\libmingw32.a(lib32_libmingw32_a-gs_support.o)
                0x6e01e9f0                __security_init_cookie
                0x6e01eaa0                __report_gsfailure
 .text          0x6e01eb30       0xf0 C:/Program Files (x86)/mingw-w64/i686-8.1.0-win32-dwarf-rt_v6-rev0/mingw32/bin/../lib/gcc/i686-w64-mingw32/8.1.0/../../../../i686-w64-mingw32/lib/../lib\libmingw32.a(lib32_libmingw32_a-tlssup.o)
                0x6e01eb80                __dyn_tls_init@12
                0x6e01ec10                __tlregdtor
 .text          0x6e01ec20        0x0 C:/Program Files (x86)/mingw-w64/i686-8.1.0-win32-dwarf-rt_v6-rev0/mingw32/bin/../lib/gcc/i686-w64-mingw32/8.1.0/../../../../i686-w64-mingw32/lib/../lib\libmingw32.a(lib32_libmingw32_a-cinitexe.o)
 .text          0x6e01ec20       0x20 C:/Program Files (x86)/mingw-w64/i686-8.1.0-win32-dwarf-rt_v6-rev0/mingw32/bin/../lib/gcc/i686-w64-mingw32/8.1.0/../../../../i686-w64-mingw32/lib/../lib\libmingw32.a(lib32_libmingw32_a-mingw_helpers.o)
                0x6e01ec20                _decode_pointer
                0x6e01ec30                _encode_pointer
 .text          0x6e01ec40      0x3d0 C:/Program Files (x86)/mingw-w64/i686-8.1.0-win32-dwarf-rt_v6-rev0/mingw32/bin/../lib/gcc/i686-w64-mingw32/8.1.0/../../../../i686-w64-mingw32/lib/../lib\libmingw32.a(lib32_libmingw32_a-pseudo-reloc.o)
                0x6e01ed90                _pei386_runtime_relocator
 .text          0x6e01f010      0x270 C:/Program Files (x86)/mingw-w64/i686-8.1.0-win32-dwarf-rt_v6-rev0/mingw32/bin/../lib/gcc/i686-w64-mingw32/8.1.0/../../../../i686-w64-mingw32/lib/../lib\libmingw32.a(lib32_libmingw32_a-tlsthrd.o)
                0x6e01f080                ___w64_mingwthr_add_key_dtor
                0x6e01f110                ___w64_mingwthr_remove_key_dtor
                0x6e01f1a0                __mingw_TLScallback
 .text          0x6e01f280        0x0 C:/Program Files (x86)/mingw-w64/i686-8.1.0-win32-dwarf-rt_v6-rev0/mingw32/bin/../lib/gcc/i686-w64-mingw32/8.1.0/../../../../i686-w64-mingw32/lib/../lib\libmingw32.a(lib32_libmingw32_a-tlsmcrt.o)
 .text          0x6e01f280        0x0 C:/Program Files (x86)/mingw-w64/i686-8.1.0-win32-dwarf-rt_v6-rev0/mingw32/bin/../lib/gcc/i686-w64-mingw32/8.1.0/../../../../i686-w64-mingw32/lib/../lib\libmingw32.a(lib32_libmingw32_a-pseudo-reloc-list.o)
 .text          0x6e01f280      0x370 C:/Program Files (x86)/mingw-w64/i686-8.1.0-win32-dwarf-rt_v6-rev0/mingw32/bin/../lib/gcc/i686-w64-mingw32/8.1.0/../../../../i686-w64-mingw32/lib/../lib\libmingw32.a(lib32_libmingw32_a-pesect.o)
                0x6e01f2a0                _ValidateImageBase
                0x6e01f2c0                _FindPESection
                0x6e01f300                _FindPESectionByName
                0x6e01f390                __mingw_GetSectionForAddress
                0x6e01f400                __mingw_GetSectionCount
                0x6e01f430                _FindPESectionExec
                0x6e01f490                _GetPEImageBase
                0x6e01f4c0                _IsNonwritableInCurrentImage
                0x6e01f540                __mingw_enum_import_library_names
 .text          0x6e01f5f0       0x10 C:/Program Files (x86)/mingw-w64/i686-8.1.0-win32-dwarf-rt_v6-rev0/mingw32/bin/../lib/gcc/i686-w64-mingw32/8.1.0/../../../../i686-w64-mingw32/lib/../lib\libmingw32.a(lib32_libmingw32_a-CRT_fp10.o)
                0x6e01f5f0                fpreset
                0x6e01f5f0                _fpreset
 .text          0x6e01f600       0x2c C:/Program Files (x86)/mingw-w64/i686-8.1.0-win32-dwarf-rt_v6-rev0/mingw32/bin/../lib/gcc/i686-w64-mingw32/8.1.0\libgcc.a(_chkstk_ms.o)
                0x6e01f600                __chkstk_ms
 .text          0x6e01f62c        0x0 C:/Program Files (x86)/mingw-w64/i686-8.1.0-win32-dwarf-rt_v6-rev0/mingw32/bin/../lib/gcc/i686-w64-mingw32/8.1.0\libgcc.a(_ctors.o)
 *fill*         0x6e01f62c        0x4 
 .text          0x6e01f630      0x100 C:/Program Files (x86)/mingw-w64/i686-8.1.0-win32-dwarf-rt_v6-rev0/mingw32/bin/../lib/gcc/i686-w64-mingw32/8.1.0\libgcc.a(_udivdi3.o)
                0x6e01f630                __udivdi3
 .text          0x6e01f730      0x410 C:/Program Files (x86)/mingw-w64/i686-8.1.0-win32-dwarf-rt_v6-rev0/mingw32/bin/../lib/gcc/i686-w64-mingw32/8.1.0\libgcc.a(gthr-win32.o)
                0x6e01f730                __gthr_win32_once
                0x6e01f7b0                __gthr_win32_key_create
                0x6e01f7f0                __gthr_win32_key_delete
                0x6e01f820                __gthr_win32_getspecific
                0x6e01f860                __gthr_win32_setspecific
                0x6e01f890                __gthr_win32_mutex_init_function
                0x6e01f8d0                __gthr_win32_mutex_destroy
                0x6e01f8f0                __gthr_win32_mutex_lock
                0x6e01f930                __gthr_win32_mutex_trylock
                0x6e01f950                __gthr_win32_mutex_unlock
                0x6e01f9a0                __gthr_win32_recursive_mutex_init_function
                0x6e01f9f0                __gthr_win32_recursive_mutex_lock
                0x6e01fa70                __gthr_win32_recursive_mutex_trylock
                0x6e01fac0                __gthr_win32_recursive_mutex_unlock
                0x6e01fb20                __gthr_win32_recursive_mutex_destroy
 .text          0x6e01fb40     0x25a0 C:/Program Files (x86)/mingw-w64/i686-8.1.0-win32-dwarf-rt_v6-rev0/mingw32/bin/../lib/gcc/i686-w64-mingw32/8.1.0\libgcc_eh.a(unwind-dw2.o)
                0x6e021a80                _Unwind_GetGR
                0x6e021ad0                _Unwind_GetCFA
                0x6e021ae0                _Unwind_SetGR
                0x6e021b40                _Unwind_GetIP
                0x6e021b50                _Unwind_GetIPInfo
                0x6e021b70                _Unwind_SetIP
                0x6e021b80                _Unwind_GetLanguageSpecificData
                0x6e021b90                _Unwind_GetRegionStart
                0x6e021ba0                _Unwind_FindEnclosingFunction
                0x6e021bd0                _Unwind_GetDataRelBase
                0x6e021be0                _Unwind_GetTextRelBase
                0x6e021bf0                __frame_state_for
                0x6e021cf0                _Unwind_RaiseException
                0x6e021e40                _Unwind_ForcedUnwind
                0x6e021ef0                _Unwind_Resume
                0x6e021f90                _Unwind_Resume_or_Rethrow
                0x6e022050                _Unwind_DeleteException
                0x6e022070                _Unwind_Backtrace
 .text          0x6e0220e0     0x17f0 C:/Program Files (x86)/mingw-w64/i686-8.1.0-win32-dwarf-rt_v6-rev0/mingw32/bin/../lib/gcc/i686-w64-mingw32/8.1.0\libgcc_eh.a(unwind-dw2-fde.o)
                0x6e023390                __register_frame_info_bases
                0x6e0233c0                __register_frame_info
                0x6e0233f0                __register_frame
                0x6e023430                __register_frame_info_table_bases
                0x6e023580                __register_frame_info_table
                0x6e0235b0                __register_frame_table
                0x6e0235f0                __deregister_frame_info_bases
                0x6e023610                __deregister_frame_info
                0x6e023630                __deregister_frame
                0x6e023660                _Unwind_Find_FDE
 .text          0x6e0238d0      0x410 C:/Program Files (x86)/mingw-w64/i686-8.1.0-win32-dwarf-rt_v6-rev0/mingw32/bin/../lib/gcc/i686-w64-mingw32/8.1.0\libgcc_eh.a(emutls.o)
                0x6e023a30                __emutls_get_address
                0x6e023ca0                __emutls_register_common
 .text          0x6e023ce0       0x10 C:/Program Files (x86)/mingw-w64/i686-8.1.0-win32-dwarf-rt_v6-rev0/mingw32/bin/../lib/gcc/i686-w64-mingw32/8.1.0/../../../../i686-w64-mingw32/lib/../lib\libmingwex.a(lib32_libmingwex_a-dllentry.o)
                0x6e023ce0                DllEntryPoint@12
 .text          0x6e023cf0       0x10 C:/Program Files (x86)/mingw-w64/i686-8.1.0-win32-dwarf-rt_v6-rev0/mingw32/bin/../lib/gcc/i686-w64-mingw32/8.1.0/../../../../i686-w64-mingw32/lib/../lib\libmingwex.a(lib32_libmingwex_a-dllmain.o)
                0x6e023cf0                DllMain@12
 .text          0x6e023d00      0x230 C:/Program Files (x86)/mingw-w64/i686-8.1.0-win32-dwarf-rt_v6-rev0/mingw32/bin/../lib/gcc/i686-w64-mingw32/8.1.0/../../../../i686-w64-mingw32/lib/../lib\libmingwex.a(lib32_libmingwex_a-wassert.o)
                0x6e023d00                _wassert
                0x6e023e60                _assert
 .text          0x6e023f30       0x80 C:/Program Files (x86)/mingw-w64/i686-8.1.0-win32-dwarf-rt_v6-rev0/mingw32/bin/../lib/gcc/i686-w64-mingw32/8.1.0/../../../../i686-w64-mingw32/lib/../lib\libmingwex.a(lib32_libmingwex_a-mingw_vsnprintf.o)
                0x6e023f30                __mingw_vsnprintf
 .text          0x6e023fb0       0x40 C:/Program Files (x86)/mingw-w64/i686-8.1.0-win32-dwarf-rt_v6-rev0/mingw32/bin/../lib/gcc/i686-w64-mingw32/8.1.0/../../../../i686-w64-mingw32/lib/../lib\libmingwex.a(lib32_libmingwex_a-mingw_vsprintf.o)
                0x6e023fb0                __mingw_vsprintf
 .text          0x6e023ff0       0x10 C:/Program Files (x86)/mingw-w64/i686-8.1.0-win32-dwarf-rt_v6-rev0/mingw32/bin/../lib/gcc/i686-w64-mingw32/8.1.0/../../../../i686-w64-mingw32/lib/../lib\libmingwex.a(lib32_libmingwex_a-vsnprintf.o)
                0x6e023ff0                __ms_vsnprintf
 .text          0x6e024000     0x21f0 C:/Program Files (x86)/mingw-w64/i686-8.1.0-win32-dwarf-rt_v6-rev0/mingw32/bin/../lib/gcc/i686-w64-mingw32/8.1.0/../../../../i686-w64-mingw32/lib/../lib\libmingwex.a(lib32_libmingwex_a-mingw_pformat.o)
                0x6e0258f0                __mingw_pformat
 .text          0x6e0261f0      0x2f0 C:/Program Files (x86)/mingw-w64/i686-8.1.0-win32-dwarf-rt_v6-rev0/mingw32/bin/../lib/gcc/i686-w64-mingw32/8.1.0/../../../../i686-w64-mingw32/lib/../lib\libmingwex.a(lib32_libmingwex_a-dmisc.o)
                0x6e0261f0                __rv_alloc_D2A
                0x6e026230                __nrv_alloc_D2A
                0x6e0262b0                __freedtoa
                0x6e0262d0                __quorem_D2A
 .text          0x6e0264e0     0x1580 C:/Program Files (x86)/mingw-w64/i686-8.1.0-win32-dwarf-rt_v6-rev0/mingw32/bin/../lib/gcc/i686-w64-mingw32/8.1.0/../../../../i686-w64-mingw32/lib/../lib\libmingwex.a(lib32_libmingwex_a-gdtoa.o)
                0x6e0264e0                __gdtoa
 .text          0x6e027a60      0x160 C:/Program Files (x86)/mingw-w64/i686-8.1.0-win32-dwarf-rt_v6-rev0/mingw32/bin/../lib/gcc/i686-w64-mingw32/8.1.0/../../../../i686-w64-mingw32/lib/../lib\libmingwex.a(lib32_libmingwex_a-gmisc.o)
                0x6e027a60                __rshift_D2A
                0x6e027b70                __trailz_D2A
 .text          0x6e027bc0      0xbe0 C:/Program Files (x86)/mingw-w64/i686-8.1.0-win32-dwarf-rt_v6-rev0/mingw32/bin/../lib/gcc/i686-w64-mingw32/8.1.0/../../../../i686-w64-mingw32/lib/../lib\libmingwex.a(lib32_libmingwex_a-misc.o)
                0x6e027cd0                __Balloc_D2A
                0x6e027da0                __Bfree_D2A
                0x6e027e10                __multadd_D2A
                0x6e027f00                __i2b_D2A
                0x6e027f30                __mult_D2A
                0x6e0280a0                __pow5mult_D2A
                0x6e028220                __lshift_D2A
                0x6e028340                __cmp_D2A
                0x6e028390                __diff_D2A
                0x6e028570                __b2d_D2A
                0x6e028670                __d2b_D2A
                0x6e028770                __strcp_D2A
 .text          0x6e0287a0      0x350 C:/Program Files (x86)/mingw-w64/i686-8.1.0-win32-dwarf-rt_v6-rev0/mingw32/bin/../lib/gcc/i686-w64-mingw32/8.1.0/../../../../i686-w64-mingw32/lib/../lib\libmingwex.a(lib32_libmingwex_a-mbrtowc.o)
                0x6e028920                mbrtowc
                0x6e028980                mbsrtowcs
                0x6e028a90                mbrlen
 .text          0x6e028af0       0x40 C:/Program Files (x86)/mingw-w64/i686-8.1.0-win32-dwarf-rt_v6-rev0/mingw32/bin/../lib/gcc/i686-w64-mingw32/8.1.0/../../../../i686-w64-mingw32/lib/../lib\libmingwex.a(lib32_libmingwex_a-strnlen.o)
                0x6e028af0                strnlen
 .text          0x6e028b30      0x200 C:/Program Files (x86)/mingw-w64/i686-8.1.0-win32-dwarf-rt_v6-rev0/mingw32/bin/../lib/gcc/i686-w64-mingw32/8.1.0/../../../../i686-w64-mingw32/lib/../lib\libmingwex.a(lib32_libmingwex_a-wcrtomb.o)
                0x6e028bd0                wcrtomb
                0x6e028c20                wcsrtombs
 .text          0x6e028d30       0x40 C:/Program Files (x86)/mingw-w64/i686-8.1.0-win32-dwarf-rt_v6-rev0/mingw32/bin/../lib/gcc/i686-w64-mingw32/8.1.0/../../../../i686-w64-mingw32/lib/../lib\libmingwex.a(lib32_libmingwex_a-wcsnlen.o)
                0x6e028d30                wcsnlen
 .text          0x6e028d70        0x8 C:/Program Files (x86)/mingw-w64/i686-8.1.0-win32-dwarf-rt_v6-rev0/mingw32/bin/../lib/gcc/i686-w64-mingw32/8.1.0/../../../../i686-w64-mingw32/lib/../lib\libmsvcr100.a(dwnfs01726.o)
                0x6e028d70                wcslen
 .text          0x6e028d78        0x8 C:/Program Files (x86)/mingw-w64/i686-8.1.0-win32-dwarf-rt_v6-rev0/mingw32/bin/../lib/gcc/i686-w64-mingw32/8.1.0/../../../../i686-w64-mingw32/lib/../lib\libmsvcr100.a(dwnfs01722.o)
                0x6e028d78                wcscpy
 .text          0x6e028d80        0x8 C:/Program Files (x86)/mingw-w64/i686-8.1.0-win32-dwarf-rt_v6-rev0/mingw32/bin/../lib/gcc/i686-w64-mingw32/8.1.0/../../../../i686-w64-mingw32/lib/../lib\libmsvcr100.a(dwnfs01704.o)
                0x6e028d80                vfprintf
 .text          0x6e028d88        0x8 C:/Program Files (x86)/mingw-w64/i686-8.1.0-win32-dwarf-rt_v6-rev0/mingw32/bin/../lib/gcc/i686-w64-mingw32/8.1.0/../../../../i686-w64-mingw32/lib/../lib\libmsvcr100.a(dwnfs01699.o)
                0x6e028d88                toupper
 .text          0x6e028d90        0x8 C:/Program Files (x86)/mingw-w64/i686-8.1.0-win32-dwarf-rt_v6-rev0/mingw32/bin/../lib/gcc/i686-w64-mingw32/8.1.0/../../../../i686-w64-mingw32/lib/../lib\libmsvcr100.a(dwnfs01681.o)
                0x6e028d90                strstr
 .text          0x6e028d98        0x8 C:/Program Files (x86)/mingw-w64/i686-8.1.0-win32-dwarf-rt_v6-rev0/mingw32/bin/../lib/gcc/i686-w64-mingw32/8.1.0/../../../../i686-w64-mingw32/lib/../lib\libmsvcr100.a(dwnfs01675.o)
                0x6e028d98                strncpy
 .text          0x6e028da0        0x8 C:/Program Files (x86)/mingw-w64/i686-8.1.0-win32-dwarf-rt_v6-rev0/mingw32/bin/../lib/gcc/i686-w64-mingw32/8.1.0/../../../../i686-w64-mingw32/lib/../lib\libmsvcr100.a(dwnfs01674.o)
                0x6e028da0                strncmp
 .text          0x6e028da8        0x8 C:/Program Files (x86)/mingw-w64/i686-8.1.0-win32-dwarf-rt_v6-rev0/mingw32/bin/../lib/gcc/i686-w64-mingw32/8.1.0/../../../../i686-w64-mingw32/lib/../lib\libmsvcr100.a(dwnfs01671.o)
                0x6e028da8                strlen
 .text          0x6e028db0        0x8 C:/Program Files (x86)/mingw-w64/i686-8.1.0-win32-dwarf-rt_v6-rev0/mingw32/bin/../lib/gcc/i686-w64-mingw32/8.1.0/../../../../i686-w64-mingw32/lib/../lib\libmsvcr100.a(dwnfs01668.o)
                0x6e028db0                strerror
 .text          0x6e028db8        0x8 C:/Program Files (x86)/mingw-w64/i686-8.1.0-win32-dwarf-rt_v6-rev0/mingw32/bin/../lib/gcc/i686-w64-mingw32/8.1.0/../../../../i686-w64-mingw32/lib/../lib\libmsvcr100.a(dwnfs01665.o)
                0x6e028db8                strcpy
 .text          0x6e028dc0        0x8 C:/Program Files (x86)/mingw-w64/i686-8.1.0-win32-dwarf-rt_v6-rev0/mingw32/bin/../lib/gcc/i686-w64-mingw32/8.1.0/../../../../i686-w64-mingw32/lib/../lib\libmsvcr100.a(dwnfs01663.o)
                0x6e028dc0                strcmp
 .text          0x6e028dc8        0x8 C:/Program Files (x86)/mingw-w64/i686-8.1.0-win32-dwarf-rt_v6-rev0/mingw32/bin/../lib/gcc/i686-w64-mingw32/8.1.0/../../../../i686-w64-mingw32/lib/../lib\libmsvcr100.a(dwnfs01654.o)
                0x6e028dc8                sprintf
 .text          0x6e028dd0        0x8 C:/Program Files (x86)/mingw-w64/i686-8.1.0-win32-dwarf-rt_v6-rev0/mingw32/bin/../lib/gcc/i686-w64-mingw32/8.1.0/../../../../i686-w64-mingw32/lib/../lib\libmsvcr100.a(dwnfs01645.o)
                0x6e028dd0                rewind
 .text          0x6e028dd8        0x8 C:/Program Files (x86)/mingw-w64/i686-8.1.0-win32-dwarf-rt_v6-rev0/mingw32/bin/../lib/gcc/i686-w64-mingw32/8.1.0/../../../../i686-w64-mingw32/lib/../lib\libmsvcr100.a(dwnfs01642.o)
                0x6e028dd8                realloc
 .text          0x6e028de0        0x8 C:/Program Files (x86)/mingw-w64/i686-8.1.0-win32-dwarf-rt_v6-rev0/mingw32/bin/../lib/gcc/i686-w64-mingw32/8.1.0/../../../../i686-w64-mingw32/lib/../lib\libmsvcr100.a(dwnfs01639.o)
                0x6e028de0                raise
 .text          0x6e028de8        0x8 C:/Program Files (x86)/mingw-w64/i686-8.1.0-win32-dwarf-rt_v6-rev0/mingw32/bin/../lib/gcc/i686-w64-mingw32/8.1.0/../../../../i686-w64-mingw32/lib/../lib\libmsvcr100.a(dwnfs01626.o)
                0x6e028de8                memset
 .text          0x6e028df0        0x8 C:/Program Files (x86)/mingw-w64/i686-8.1.0-win32-dwarf-rt_v6-rev0/mingw32/bin/../lib/gcc/i686-w64-mingw32/8.1.0/../../../../i686-w64-mingw32/lib/../lib\libmsvcr100.a(dwnfs01622.o)
                0x6e028df0                memcpy
 .text          0x6e028df8        0x8 C:/Program Files (x86)/mingw-w64/i686-8.1.0-win32-dwarf-rt_v6-rev0/mingw32/bin/../lib/gcc/i686-w64-mingw32/8.1.0/../../../../i686-w64-mingw32/lib/../lib\libmsvcr100.a(dwnfs01621.o)
                0x6e028df8                memcmp
 .text          0x6e028e00        0x8 C:/Program Files (x86)/mingw-w64/i686-8.1.0-win32-dwarf-rt_v6-rev0/mingw32/bin/../lib/gcc/i686-w64-mingw32/8.1.0/../../../../i686-w64-mingw32/lib/../lib\libmsvcr100.a(dwnfs01611.o)
                0x6e028e00                malloc
 .text          0x6e028e08        0x8 C:/Program Files (x86)/mingw-w64/i686-8.1.0-win32-dwarf-rt_v6-rev0/mingw32/bin/../lib/gcc/i686-w64-mingw32/8.1.0/../../../../i686-w64-mingw32/lib/../lib\libmsvcr100.a(dwnfs01607.o)
                0x6e028e08                localeconv
 .text          0x6e028e10        0x8 C:/Program Files (x86)/mingw-w64/i686-8.1.0-win32-dwarf-rt_v6-rev0/mingw32/bin/../lib/gcc/i686-w64-mingw32/8.1.0/../../../../i686-w64-mingw32/lib/../lib\libmsvcr100.a(dwnfs01565.o)
                0x6e028e10                fwrite
 .text          0x6e028e18        0x8 C:/Program Files (x86)/mingw-w64/i686-8.1.0-win32-dwarf-rt_v6-rev0/mingw32/bin/../lib/gcc/i686-w64-mingw32/8.1.0/../../../../i686-w64-mingw32/lib/../lib\libmsvcr100.a(dwnfs01563.o)
                0x6e028e18                fwprintf
 .text          0x6e028e20        0x8 C:/Program Files (x86)/mingw-w64/i686-8.1.0-win32-dwarf-rt_v6-rev0/mingw32/bin/../lib/gcc/i686-w64-mingw32/8.1.0/../../../../i686-w64-mingw32/lib/../lib\libmsvcr100.a(dwnfs01560.o)
                0x6e028e20                ftell
 .text          0x6e028e28        0x8 C:/Program Files (x86)/mingw-w64/i686-8.1.0-win32-dwarf-rt_v6-rev0/mingw32/bin/../lib/gcc/i686-w64-mingw32/8.1.0/../../../../i686-w64-mingw32/lib/../lib\libmsvcr100.a(dwnfs01558.o)
                0x6e028e28                fseek
 .text          0x6e028e30        0x8 C:/Program Files (x86)/mingw-w64/i686-8.1.0-win32-dwarf-rt_v6-rev0/mingw32/bin/../lib/gcc/i686-w64-mingw32/8.1.0/../../../../i686-w64-mingw32/lib/../lib\libmsvcr100.a(dwnfs01553.o)
                0x6e028e30                free
 .text          0x6e028e38        0x8 C:/Program Files (x86)/mingw-w64/i686-8.1.0-win32-dwarf-rt_v6-rev0/mingw32/bin/../lib/gcc/i686-w64-mingw32/8.1.0/../../../../i686-w64-mingw32/lib/../lib\libmsvcr100.a(dwnfs01551.o)
                0x6e028e38                fread
 .text          0x6e028e40        0x8 C:/Program Files (x86)/mingw-w64/i686-8.1.0-win32-dwarf-rt_v6-rev0/mingw32/bin/../lib/gcc/i686-w64-mingw32/8.1.0/../../../../i686-w64-mingw32/lib/../lib\libmsvcr100.a(dwnfs01548.o)
                0x6e028e40                fputs
 .text          0x6e028e48        0x8 C:/Program Files (x86)/mingw-w64/i686-8.1.0-win32-dwarf-rt_v6-rev0/mingw32/bin/../lib/gcc/i686-w64-mingw32/8.1.0/../../../../i686-w64-mingw32/lib/../lib\libmsvcr100.a(dwnfs01547.o)
                0x6e028e48                fputc
 .text          0x6e028e50        0x8 C:/Program Files (x86)/mingw-w64/i686-8.1.0-win32-dwarf-rt_v6-rev0/mingw32/bin/../lib/gcc/i686-w64-mingw32/8.1.0/../../../../i686-w64-mingw32/lib/../lib\libmsvcr100.a(dwnfs01545.o)
                0x6e028e50                fprintf
 .text          0x6e028e58        0x8 C:/Program Files (x86)/mingw-w64/i686-8.1.0-win32-dwarf-rt_v6-rev0/mingw32/bin/../lib/gcc/i686-w64-mingw32/8.1.0/../../../../i686-w64-mingw32/lib/../lib\libmsvcr100.a(dwnfs01543.o)
                0x6e028e58                fopen
 .text          0x6e028e60        0x8 C:/Program Files (x86)/mingw-w64/i686-8.1.0-win32-dwarf-rt_v6-rev0/mingw32/bin/../lib/gcc/i686-w64-mingw32/8.1.0/../../../../i686-w64-mingw32/lib/../lib\libmsvcr100.a(dwnfs01532.o)
                0x6e028e60                fclose
 .text          0x6e028e68        0x8 C:/Program Files (x86)/mingw-w64/i686-8.1.0-win32-dwarf-rt_v6-rev0/mingw32/bin/../lib/gcc/i686-w64-mingw32/8.1.0/../../../../i686-w64-mingw32/lib/../lib\libmsvcr100.a(dwnfs01521.o)
                0x6e028e68                calloc
 .text          0x6e028e70        0x8 C:/Program Files (x86)/mingw-w64/i686-8.1.0-win32-dwarf-rt_v6-rev0/mingw32/bin/../lib/gcc/i686-w64-mingw32/8.1.0/../../../../i686-w64-mingw32/lib/../lib\libmsvcr100.a(dwnfs01516.o)
                0x6e028e70                atoi
 .text          0x6e028e78        0x8 C:/Program Files (x86)/mingw-w64/i686-8.1.0-win32-dwarf-rt_v6-rev0/mingw32/bin/../lib/gcc/i686-w64-mingw32/8.1.0/../../../../i686-w64-mingw32/lib/../lib\libmsvcr100.a(dwnfs01503.o)
                0x6e028e78                abort
 .text          0x6e028e80        0x8 C:/Program Files (x86)/mingw-w64/i686-8.1.0-win32-dwarf-rt_v6-rev0/mingw32/bin/../lib/gcc/i686-w64-mingw32/8.1.0/../../../../i686-w64-mingw32/lib/../lib\libmsvcr100.a(dwnfs01456.o)
                0x6e028e80                write
 .text          0x6e028e88        0x8 C:/Program Files (x86)/mingw-w64/i686-8.1.0-win32-dwarf-rt_v6-rev0/mingw32/bin/../lib/gcc/i686-w64-mingw32/8.1.0/../../../../i686-w64-mingw32/lib/../lib\libmsvcr100.a(dwnfs01314.o)
                0x6e028e88                _vsnprintf
 .text          0x6e028e90        0x8 C:/Program Files (x86)/mingw-w64/i686-8.1.0-win32-dwarf-rt_v6-rev0/mingw32/bin/../lib/gcc/i686-w64-mingw32/8.1.0/../../../../i686-w64-mingw32/lib/../lib\libmsvcr100.a(dwnfs01179.o)
                0x6e028e90                stricmp
 .text          0x6e028e98        0x8 C:/Program Files (x86)/mingw-w64/i686-8.1.0-win32-dwarf-rt_v6-rev0/mingw32/bin/../lib/gcc/i686-w64-mingw32/8.1.0/../../../../i686-w64-mingw32/lib/../lib\libmsvcr100.a(dwnfs01126.o)
                0x6e028e98                _snwprintf
 .text          0x6e028ea0        0x0 C:/Program Files (x86)/mingw-w64/i686-8.1.0-win32-dwarf-rt_v6-rev0/mingw32/bin/../lib/gcc/i686-w64-mingw32/8.1.0/../../../../i686-w64-mingw32/lib/../lib\libmsvcr100.a(dwnfs00744.o)
 .text          0x6e028ea0        0x8 C:/Program Files (x86)/mingw-w64/i686-8.1.0-win32-dwarf-rt_v6-rev0/mingw32/bin/../lib/gcc/i686-w64-mingw32/8.1.0/../../../../i686-w64-mingw32/lib/../lib\libmsvcr100.a(dwnfs00735.o)
                0x6e028ea0                _initterm
 .text          0x6e028ea8        0x8 C:/Program Files (x86)/mingw-w64/i686-8.1.0-win32-dwarf-rt_v6-rev0/mingw32/bin/../lib/gcc/i686-w64-mingw32/8.1.0/../../../../i686-w64-mingw32/lib/../lib\libmsvcr100.a(dwnfs00576.o)
                0x6e028ea8                _exit
 .text          0x6e028eb0        0x8 C:/Program Files (x86)/mingw-w64/i686-8.1.0-win32-dwarf-rt_v6-rev0/mingw32/bin/../lib/gcc/i686-w64-mingw32/8.1.0/../../../../i686-w64-mingw32/lib/../lib\libmsvcr100.a(dwnfs00559.o)
                0x6e028eb0                _errno
 .text          0x6e028eb8        0x8 C:/Program Files (x86)/mingw-w64/i686-8.1.0-win32-dwarf-rt_v6-rev0/mingw32/bin/../lib/gcc/i686-w64-mingw32/8.1.0/../../../../i686-w64-mingw32/lib/../lib\libmsvcr100.a(dwnfs00457.o)
                0x6e028eb8                _amsg_exit
 .text          0x6e028ec0        0x8 C:/Program Files (x86)/mingw-w64/i686-8.1.0-win32-dwarf-rt_v6-rev0/mingw32/bin/../lib/gcc/i686-w64-mingw32/8.1.0/../../../../i686-w64-mingw32/lib/../lib\libmsvcr100.a(dwnfs00332.o)
                0x6e028ec0                ___mb_cur_max_func
 .text          0x6e028ec8        0x8 C:/Program Files (x86)/mingw-w64/i686-8.1.0-win32-dwarf-rt_v6-rev0/mingw32/bin/../lib/gcc/i686-w64-mingw32/8.1.0/../../../../i686-w64-mingw32/lib/../lib\libmsvcr100.a(dwnfs00329.o)
                0x6e028ec8                ___lc_codepage_func
 .text          0x6e028ed0      0x170 C:/Program Files (x86)/mingw-w64/i686-8.1.0-win32-dwarf-rt_v6-rev0/mingw32/bin/../lib/gcc/i686-w64-mingw32/8.1.0/../../../../i686-w64-mingw32/lib/../lib\libmsvcr100.a(lib32_libmsvcr100_a-onexit_table.o)
                0x6e028ed0                _initialize_onexit_table
                0x6e028f00                _register_onexit_function
                0x6e028fd0                _execute_onexit_table
 .text          0x6e029040       0x10 C:/Program Files (x86)/mingw-w64/i686-8.1.0-win32-dwarf-rt_v6-rev0/mingw32/bin/../lib/gcc/i686-w64-mingw32/8.1.0/../../../../i686-w64-mingw32/lib/../lib\libmsvcr100.a(lib32_libmsvcr100_a-acrt_iob_func.o)
                0x6e029040                __acrt_iob_func
 .text          0x6e029050        0x0 C:/Program Files (x86)/mingw-w64/i686-8.1.0-win32-dwarf-rt_v6-rev0/mingw32/bin/../lib/gcc/i686-w64-mingw32/8.1.0/../../../../i686-w64-mingw32/lib/../lib\libmsvcr100.a(dwnfh.o)
 .text          0x6e029050        0x8 C:/Program Files (x86)/mingw-w64/i686-8.1.0-win32-dwarf-rt_v6-rev0/mingw32/bin/../lib/gcc/i686-w64-mingw32/8.1.0/../../../../i686-w64-mingw32/lib/../lib\libmsvcr100.a(dwnfs01276.o)
                0x6e029050                _unlock
 .text          0x6e029058        0x8 C:/Program Files (x86)/mingw-w64/i686-8.1.0-win32-dwarf-rt_v6-rev0/mingw32/bin/../lib/gcc/i686-w64-mingw32/8.1.0/../../../../i686-w64-mingw32/lib/../lib\libmsvcr100.a(dwnfs00858.o)
                0x6e029058                _lock
 .text          0x6e029060        0x0 C:/Program Files (x86)/mingw-w64/i686-8.1.0-win32-dwarf-rt_v6-rev0/mingw32/bin/../lib/gcc/i686-w64-mingw32/8.1.0/../../../../i686-w64-mingw32/lib/../lib\libmsvcr100.a(dwnft.o)
 .text          0x6e029060        0x0 C:/Program Files (x86)/mingw-w64/i686-8.1.0-win32-dwarf-rt_v6-rev0/mingw32/bin/../lib/gcc/i686-w64-mingw32/8.1.0/../../../../i686-w64-mingw32/lib/../lib\libuser32.a(dmceh.o)
 .text          0x6e029060        0x0 C:/Program Files (x86)/mingw-w64/i686-8.1.0-win32-dwarf-rt_v6-rev0/mingw32/bin/../lib/gcc/i686-w64-mingw32/8.1.0/../../../../i686-w64-mingw32/lib/../lib\libuser32.a(dmcet.o)
 .text          0x6e029060       0x30 C:/Program Files (x86)/mingw-w64/i686-8.1.0-win32-dwarf-rt_v6-rev0/mingw32/bin/../lib/gcc/i686-w64-mingw32/8.1.0/../../../../i686-w64-mingw32/lib/../lib\libmingw32.a(lib32_libmingw32_a-tlsmthread.o)
                0x6e029060                __mingwthr_remove_key_dtor
                0x6e029070                __mingwthr_key_dtor
 .text          0x6e029090      0x120 C:/Program Files (x86)/mingw-w64/i686-8.1.0-win32-dwarf-rt_v6-rev0/mingw32/bin/../lib/gcc/i686-w64-mingw32/8.1.0\libgcc.a(_umoddi3.o)
                0x6e029090                __umoddi3
 .text          0x6e0291b0        0x0 C:/Program Files (x86)/mingw-w64/i686-8.1.0-win32-dwarf-rt_v6-rev0/mingw32/bin/../lib/gcc/i686-w64-mingw32/8.1.0/crtend.o
 *(SORT_BY_NAME(.text$*))
 .text$_Z7sprintfPcPKcz
                0x6e0291b0       0x30 rsa_verify.o
                0x6e0291b0                sprintf(char*, char const*, ...)
 .text$_Z8snprintfPcjPKcz
                0x6e0291e0       0x30 main.o
                0x6e0291e0                snprintf(char*, unsigned int, char const*, ...)
 .text$_ZGTtNKSt13bad_exceptionD1Ev
                0x6e029210       0x10 C:/Program Files (x86)/mingw-w64/i686-8.1.0-win32-dwarf-rt_v6-rev0/mingw32/bin/../lib/gcc/i686-w64-mingw32/8.1.0\libstdc++.a(eh_exception.o)
                0x6e029210                transaction clone for std::bad_exception::~bad_exception() const
 .text$_ZGTtNKSt9exceptionD1Ev
                0x6e029220       0x10 C:/Program Files (x86)/mingw-w64/i686-8.1.0-win32-dwarf-rt_v6-rev0/mingw32/bin/../lib/gcc/i686-w64-mingw32/8.1.0\libstdc++.a(eh_exception.o)
                0x6e029220                transaction clone for std::exception::~exception() const
 .text$_ZL15get_ttype_entryP16lsda_header_infom
                0x6e029230       0x80 C:/Program Files (x86)/mingw-w64/i686-8.1.0-win32-dwarf-rt_v6-rev0/mingw32/bin/../lib/gcc/i686-w64-mingw32/8.1.0\libstdc++.a(eh_personality.o)
 .text$_ZL16get_adjusted_ptrPKSt9type_infoS1_PPv
                0x6e0292b0       0x60 C:/Program Files (x86)/mingw-w64/i686-8.1.0-win32-dwarf-rt_v6-rev0/mingw32/bin/../lib/gcc/i686-w64-mingw32/8.1.0\libstdc++.a(eh_personality.o)
 .text$_ZL17parse_lsda_headerP15_Unwind_ContextPKhP16lsda_header_info
                0x6e029310       0xe0 C:/Program Files (x86)/mingw-w64/i686-8.1.0-win32-dwarf-rt_v6-rev0/mingw32/bin/../lib/gcc/i686-w64-mingw32/8.1.0\libstdc++.a(eh_personality.o)
 .text$_ZL20check_exception_specP16lsda_header_infoPKSt9type_infoPvl
                0x6e0293f0       0x70 C:/Program Files (x86)/mingw-w64/i686-8.1.0-win32-dwarf-rt_v6-rev0/mingw32/bin/../lib/gcc/i686-w64-mingw32/8.1.0\libstdc++.a(eh_personality.o)
 .text$_ZL21base_of_encoded_valuehP15_Unwind_Context
                0x6e029460       0x60 C:/Program Files (x86)/mingw-w64/i686-8.1.0-win32-dwarf-rt_v6-rev0/mingw32/bin/../lib/gcc/i686-w64-mingw32/8.1.0\libstdc++.a(eh_personality.o)
 .text$_ZL23__gxx_exception_cleanup19_Unwind_Reason_CodeP17_Unwind_Exception
                0x6e0294c0       0x50 C:/Program Files (x86)/mingw-w64/i686-8.1.0-win32-dwarf-rt_v6-rev0/mingw32/bin/../lib/gcc/i686-w64-mingw32/8.1.0\libstdc++.a(eh_throw.o)
 .text$_ZL28read_encoded_value_with_basehjPKhPj
                0x6e029510      0x140 C:/Program Files (x86)/mingw-w64/i686-8.1.0-win32-dwarf-rt_v6-rev0/mingw32/bin/../lib/gcc/i686-w64-mingw32/8.1.0\libstdc++.a(eh_personality.o)
 .text$_ZN10__cxxabiv111__terminateEPFvvE
                0x6e029650       0x20 C:/Program Files (x86)/mingw-w64/i686-8.1.0-win32-dwarf-rt_v6-rev0/mingw32/bin/../lib/gcc/i686-w64-mingw32/8.1.0\libstdc++.a(eh_terminate.o)
                0x6e029650                __cxxabiv1::__terminate(void (*)())
 .text$_ZN10__cxxabiv112__unexpectedEPFvvE
                0x6e029670       0x10 C:/Program Files (x86)/mingw-w64/i686-8.1.0-win32-dwarf-rt_v6-rev0/mingw32/bin/../lib/gcc/i686-w64-mingw32/8.1.0\libstdc++.a(eh_terminate.o)
                0x6e029670                __cxxabiv1::__unexpected(void (*)())
 .text$_ZN10__cxxabiv115__forced_unwindD0Ev
                0x6e029680       0x20 C:/Program Files (x86)/mingw-w64/i686-8.1.0-win32-dwarf-rt_v6-rev0/mingw32/bin/../lib/gcc/i686-w64-mingw32/8.1.0\libstdc++.a(eh_exception.o)
                0x6e029680                __cxxabiv1::__forced_unwind::~__forced_unwind()
 .text$_ZN10__cxxabiv115__forced_unwindD2Ev
                0x6e0296a0       0x10 C:/Program Files (x86)/mingw-w64/i686-8.1.0-win32-dwarf-rt_v6-rev0/mingw32/bin/../lib/gcc/i686-w64-mingw32/8.1.0\libstdc++.a(eh_exception.o)
                0x6e0296a0                __cxxabiv1::__forced_unwind::~__forced_unwind()
                0x6e0296a0                __cxxabiv1::__forced_unwind::~__forced_unwind()
 .text$_ZN10__cxxabiv117__class_type_infoD0Ev
                0x6e0296b0       0x30 C:/Program Files (x86)/mingw-w64/i686-8.1.0-win32-dwarf-rt_v6-rev0/mingw32/bin/../lib/gcc/i686-w64-mingw32/8.1.0\libstdc++.a(class_type_info.o)
                0x6e0296b0                __cxxabiv1::__class_type_info::~__class_type_info()
 .text$_ZN10__cxxabiv117__class_type_infoD2Ev
                0x6e0296e0       0x10 C:/Program Files (x86)/mingw-w64/i686-8.1.0-win32-dwarf-rt_v6-rev0/mingw32/bin/../lib/gcc/i686-w64-mingw32/8.1.0\libstdc++.a(class_type_info.o)
                0x6e0296e0                __cxxabiv1::__class_type_info::~__class_type_info()
                0x6e0296e0                __cxxabiv1::__class_type_info::~__class_type_info()
 .text$_ZN10__cxxabiv119__foreign_exceptionD0Ev
                0x6e0296f0       0x20 C:/Program Files (x86)/mingw-w64/i686-8.1.0-win32-dwarf-rt_v6-rev0/mingw32/bin/../lib/gcc/i686-w64-mingw32/8.1.0\libstdc++.a(eh_exception.o)
                0x6e0296f0                __cxxabiv1::__foreign_exception::~__foreign_exception()
 .text$_ZN10__cxxabiv119__foreign_exceptionD2Ev
                0x6e029710       0x10 C:/Program Files (x86)/mingw-w64/i686-8.1.0-win32-dwarf-rt_v6-rev0/mingw32/bin/../lib/gcc/i686-w64-mingw32/8.1.0\libstdc++.a(eh_exception.o)
                0x6e029710                __cxxabiv1::__foreign_exception::~__foreign_exception()
                0x6e029710                __cxxabiv1::__foreign_exception::~__foreign_exception()
 .text$_ZN10__cxxabiv120__si_class_type_infoD0Ev
                0x6e029720       0x30 C:/Program Files (x86)/mingw-w64/i686-8.1.0-win32-dwarf-rt_v6-rev0/mingw32/bin/../lib/gcc/i686-w64-mingw32/8.1.0\libstdc++.a(si_class_type_info.o)
                0x6e029720                __cxxabiv1::__si_class_type_info::~__si_class_type_info()
 .text$_ZN10__cxxabiv120__si_class_type_infoD2Ev
                0x6e029750       0x10 C:/Program Files (x86)/mingw-w64/i686-8.1.0-win32-dwarf-rt_v6-rev0/mingw32/bin/../lib/gcc/i686-w64-mingw32/8.1.0\libstdc++.a(si_class_type_info.o)
                0x6e029750                __cxxabiv1::__si_class_type_info::~__si_class_type_info()
                0x6e029750                __cxxabiv1::__si_class_type_info::~__si_class_type_info()
 .text$_ZN12_GLOBAL__N_14pool4freeEPv.constprop.2
                0x6e029760      0x150 C:/Program Files (x86)/mingw-w64/i686-8.1.0-win32-dwarf-rt_v6-rev0/mingw32/bin/../lib/gcc/i686-w64-mingw32/8.1.0\libstdc++.a(eh_alloc.o)
 .text$_ZN12_GLOBAL__N_14pool8allocateEj.constprop.3
                0x6e0298b0      0x120 C:/Program Files (x86)/mingw-w64/i686-8.1.0-win32-dwarf-rt_v6-rev0/mingw32/bin/../lib/gcc/i686-w64-mingw32/8.1.0\libstdc++.a(eh_alloc.o)
 .text$_ZN4IXAC10ConnectingEv
                0x6e0299d0      0x120 main.o
                0x6e0299d0                IXAC::Connecting()
 .text$_ZN4IXAC10InitializeEv
                0x6e029af0       0x20 main.o
                0x6e029af0                IXAC::Initialize()
 .text$_ZN4IXAC11VerifyImageEv
                0x6e029b10      0x2d0 main.o
                0x6e029b10                IXAC::VerifyImage()
 .text$_ZN4IXAC13ReturnVersionEv
                0x6e029de0       0x10 main.o
                0x6e029de0                IXAC::ReturnVersion()
 .text$_ZN4IXAC15EarlyInitializeEv
                0x6e029df0       0x10 main.o
                0x6e029df0                IXAC::EarlyInitialize()
 .text$_ZN4IXAC15NetDataCallbackEP5msg_t
                0x6e029e00       0xd0 main.o
                0x6e029e00                IXAC::NetDataCallback(msg_t*)
 .text$_ZN4IXAC8RunFrameEv
                0x6e029ed0       0xd0 main.o
                0x6e029ed0                IXAC::RunFrame()
 .text$_ZN4IXAC9TerminateEv
                0x6e029fa0       0x10 main.o
                0x6e029fa0                IXAC::Terminate()
 .text$_ZN9IDownload4ReadEP5msg_t
                0x6e029fb0      0x240 main.o
                0x6e029fb0                IDownload::Read(msg_t*)
 .text$_ZN9__gnu_cxx24__concurrence_lock_errorD0Ev
                0x6e02a1f0       0x30 C:/Program Files (x86)/mingw-w64/i686-8.1.0-win32-dwarf-rt_v6-rev0/mingw32/bin/../lib/gcc/i686-w64-mingw32/8.1.0\libstdc++.a(eh_alloc.o)
                0x6e02a1f0                __gnu_cxx::__concurrence_lock_error::~__concurrence_lock_error()
 .text$_ZN9__gnu_cxx24__concurrence_lock_errorD1Ev
                0x6e02a220       0x10 C:/Program Files (x86)/mingw-w64/i686-8.1.0-win32-dwarf-rt_v6-rev0/mingw32/bin/../lib/gcc/i686-w64-mingw32/8.1.0\libstdc++.a(eh_alloc.o)
                0x6e02a220                __gnu_cxx::__concurrence_lock_error::~__concurrence_lock_error()
 .text$_ZN9__gnu_cxx26__concurrence_unlock_errorD0Ev
                0x6e02a230       0x30 C:/Program Files (x86)/mingw-w64/i686-8.1.0-win32-dwarf-rt_v6-rev0/mingw32/bin/../lib/gcc/i686-w64-mingw32/8.1.0\libstdc++.a(eh_alloc.o)
                0x6e02a230                __gnu_cxx::__concurrence_unlock_error::~__concurrence_unlock_error()
 .text$_ZN9__gnu_cxx26__concurrence_unlock_errorD1Ev
                0x6e02a260       0x10 C:/Program Files (x86)/mingw-w64/i686-8.1.0-win32-dwarf-rt_v6-rev0/mingw32/bin/../lib/gcc/i686-w64-mingw32/8.1.0\libstdc++.a(eh_alloc.o)
                0x6e02a260                __gnu_cxx::__concurrence_unlock_error::~__concurrence_unlock_error()
 .text$_ZN9__gnu_cxx27__verbose_terminate_handlerEv
                0x6e02a270      0x160 C:/Program Files (x86)/mingw-w64/i686-8.1.0-win32-dwarf-rt_v6-rev0/mingw32/bin/../lib/gcc/i686-w64-mingw32/8.1.0\libstdc++.a(vterminate.o)
                0x6e02a270                __gnu_cxx::__verbose_terminate_handler()
 .text$_ZN9__gnu_cxx30__throw_concurrence_lock_errorEv
                0x6e02a3d0       0x30 C:/Program Files (x86)/mingw-w64/i686-8.1.0-win32-dwarf-rt_v6-rev0/mingw32/bin/../lib/gcc/i686-w64-mingw32/8.1.0\libstdc++.a(eh_alloc.o)
                0x6e02a3d0                __gnu_cxx::__throw_concurrence_lock_error()
 .text$_ZN9__gnu_cxx32__throw_concurrence_unlock_errorEv
                0x6e02a400       0x30 C:/Program Files (x86)/mingw-w64/i686-8.1.0-win32-dwarf-rt_v6-rev0/mingw32/bin/../lib/gcc/i686-w64-mingw32/8.1.0\libstdc++.a(eh_alloc.o)
                0x6e02a400                __gnu_cxx::__throw_concurrence_unlock_error()
 .text$_ZN9__gnu_cxx9__freeresEv
                0x6e02a430       0x30 C:/Program Files (x86)/mingw-w64/i686-8.1.0-win32-dwarf-rt_v6-rev0/mingw32/bin/../lib/gcc/i686-w64-mingw32/8.1.0\libstdc++.a(eh_alloc.o)
                0x6e02a430                __gnu_cxx::__freeres()
 .text$_ZNK10__cxxabiv117__class_type_info10__do_catchEPKSt9type_infoPPvj
                0x6e02a460       0x40 C:/Program Files (x86)/mingw-w64/i686-8.1.0-win32-dwarf-rt_v6-rev0/mingw32/bin/../lib/gcc/i686-w64-mingw32/8.1.0\libstdc++.a(class_type_info.o)
                0x6e02a460                __cxxabiv1::__class_type_info::__do_catch(std::type_info const*, void**, unsigned int) const
 .text$_ZNK10__cxxabiv117__class_type_info11__do_upcastEPKS0_PKvRNS0_15__upcast_resultE
                0x6e02a4a0       0x40 C:/Program Files (x86)/mingw-w64/i686-8.1.0-win32-dwarf-rt_v6-rev0/mingw32/bin/../lib/gcc/i686-w64-mingw32/8.1.0\libstdc++.a(class_type_info.o)
                0x6e02a4a0                __cxxabiv1::__class_type_info::__do_upcast(__cxxabiv1::__class_type_info const*, void const*, __cxxabiv1::__class_type_info::__upcast_result&) const
 .text$_ZNK10__cxxabiv117__class_type_info11__do_upcastEPKS0_PPv
                0x6e02a4e0       0x70 C:/Program Files (x86)/mingw-w64/i686-8.1.0-win32-dwarf-rt_v6-rev0/mingw32/bin/../lib/gcc/i686-w64-mingw32/8.1.0\libstdc++.a(class_type_info.o)
                0x6e02a4e0                __cxxabiv1::__class_type_info::__do_upcast(__cxxabiv1::__class_type_info const*, void**) const
 .text$_ZNK10__cxxabiv117__class_type_info12__do_dyncastEiNS0_10__sub_kindEPKS0_PKvS3_S5_RNS0_16__dyncast_resultE
                0x6e02a550       0x80 C:/Program Files (x86)/mingw-w64/i686-8.1.0-win32-dwarf-rt_v6-rev0/mingw32/bin/../lib/gcc/i686-w64-mingw32/8.1.0\libstdc++.a(class_type_info.o)
                0x6e02a550                __cxxabiv1::__class_type_info::__do_dyncast(int, __cxxabiv1::__class_type_info::__sub_kind, __cxxabiv1::__class_type_info const*, void const*, __cxxabiv1::__class_type_info const*, void const*, __cxxabiv1::__class_type_info::__dyncast_result&) const
 .text$_ZNK10__cxxabiv117__class_type_info20__do_find_public_srcEiPKvPKS0_S2_
                0x6e02a5d0       0x20 C:/Program Files (x86)/mingw-w64/i686-8.1.0-win32-dwarf-rt_v6-rev0/mingw32/bin/../lib/gcc/i686-w64-mingw32/8.1.0\libstdc++.a(class_type_info.o)
                0x6e02a5d0                __cxxabiv1::__class_type_info::__do_find_public_src(int, void const*, __cxxabiv1::__class_type_info const*, void const*) const
 .text$_ZNK10__cxxabiv120__si_class_type_info11__do_upcastEPKNS_17__class_type_infoEPKvRNS1_15__upcast_resultE
                0x6e02a5f0       0x60 C:/Program Files (x86)/mingw-w64/i686-8.1.0-win32-dwarf-rt_v6-rev0/mingw32/bin/../lib/gcc/i686-w64-mingw32/8.1.0\libstdc++.a(si_class_type_info.o)
                0x6e02a5f0                __cxxabiv1::__si_class_type_info::__do_upcast(__cxxabiv1::__class_type_info const*, void const*, __cxxabiv1::__class_type_info::__upcast_result&) const
 .text$_ZNK10__cxxabiv120__si_class_type_info12__do_dyncastEiNS_17__class_type_info10__sub_kindEPKS1_PKvS4_S6_RNS1_16__dyncast_resultE
                0x6e02a650       0xf0 C:/Program Files (x86)/mingw-w64/i686-8.1.0-win32-dwarf-rt_v6-rev0/mingw32/bin/../lib/gcc/i686-w64-mingw32/8.1.0\libstdc++.a(si_class_type_info.o)
                0x6e02a650                __cxxabiv1::__si_class_type_info::__do_dyncast(int, __cxxabiv1::__class_type_info::__sub_kind, __cxxabiv1::__class_type_info const*, void const*, __cxxabiv1::__class_type_info const*, void const*, __cxxabiv1::__class_type_info::__dyncast_result&) const
 .text$_ZNK10__cxxabiv120__si_class_type_info20__do_find_public_srcEiPKvPKNS_17__class_type_infoES2_
                0x6e02a740       0x70 C:/Program Files (x86)/mingw-w64/i686-8.1.0-win32-dwarf-rt_v6-rev0/mingw32/bin/../lib/gcc/i686-w64-mingw32/8.1.0\libstdc++.a(si_class_type_info.o)
                0x6e02a740                __cxxabiv1::__si_class_type_info::__do_find_public_src(int, void const*, __cxxabiv1::__class_type_info const*, void const*) const
 .text$_ZNK9__gnu_cxx24__concurrence_lock_error4whatEv
                0x6e02a7b0       0x10 C:/Program Files (x86)/mingw-w64/i686-8.1.0-win32-dwarf-rt_v6-rev0/mingw32/bin/../lib/gcc/i686-w64-mingw32/8.1.0\libstdc++.a(eh_alloc.o)
                0x6e02a7b0                __gnu_cxx::__concurrence_lock_error::what() const
 .text$_ZNK9__gnu_cxx26__concurrence_unlock_error4whatEv
                0x6e02a7c0       0x10 C:/Program Files (x86)/mingw-w64/i686-8.1.0-win32-dwarf-rt_v6-rev0/mingw32/bin/../lib/gcc/i686-w64-mingw32/8.1.0\libstdc++.a(eh_alloc.o)
                0x6e02a7c0                __gnu_cxx::__concurrence_unlock_error::what() const
 .text$_ZNKSt13bad_exception4whatEv
                0x6e02a7d0       0x10 C:/Program Files (x86)/mingw-w64/i686-8.1.0-win32-dwarf-rt_v6-rev0/mingw32/bin/../lib/gcc/i686-w64-mingw32/8.1.0\libstdc++.a(eh_exception.o)
                0x6e02a7d0                transaction clone for std::bad_exception::what() const
                0x6e02a7d0                std::bad_exception::what() const
 .text$_ZNKSt9bad_alloc4whatEv
                0x6e02a7e0       0x10 C:/Program Files (x86)/mingw-w64/i686-8.1.0-win32-dwarf-rt_v6-rev0/mingw32/bin/../lib/gcc/i686-w64-mingw32/8.1.0\libstdc++.a(bad_alloc.o)
                0x6e02a7e0                std::bad_alloc::what() const
 .text$_ZNKSt9exception4whatEv
                0x6e02a7f0       0x10 C:/Program Files (x86)/mingw-w64/i686-8.1.0-win32-dwarf-rt_v6-rev0/mingw32/bin/../lib/gcc/i686-w64-mingw32/8.1.0\libstdc++.a(eh_exception.o)
                0x6e02a7f0                transaction clone for std::exception::what() const
                0x6e02a7f0                std::exception::what() const
 .text$_ZNKSt9type_info10__do_catchEPKS_PPvj
                0x6e02a800       0x20 C:/Program Files (x86)/mingw-w64/i686-8.1.0-win32-dwarf-rt_v6-rev0/mingw32/bin/../lib/gcc/i686-w64-mingw32/8.1.0\libstdc++.a(tinfo.o)
                0x6e02a800                std::type_info::__do_catch(std::type_info const*, void**, unsigned int) const
 .text$_ZNKSt9type_info11__do_upcastEPKN10__cxxabiv117__class_type_infoEPPv
                0x6e02a820       0x10 C:/Program Files (x86)/mingw-w64/i686-8.1.0-win32-dwarf-rt_v6-rev0/mingw32/bin/../lib/gcc/i686-w64-mingw32/8.1.0\libstdc++.a(tinfo.o)
                0x6e02a820                std::type_info::__do_upcast(__cxxabiv1::__class_type_info const*, void**) const
 .text$_ZNKSt9type_info14__is_pointer_pEv
                0x6e02a830       0x10 C:/Program Files (x86)/mingw-w64/i686-8.1.0-win32-dwarf-rt_v6-rev0/mingw32/bin/../lib/gcc/i686-w64-mingw32/8.1.0\libstdc++.a(tinfo.o)
                0x6e02a830                std::type_info::__is_function_p() const
                0x6e02a830                std::type_info::__is_pointer_p() const
 .text$_ZNKSt9type_infoeqERKS_
                0x6e02a840       0x40 C:/Program Files (x86)/mingw-w64/i686-8.1.0-win32-dwarf-rt_v6-rev0/mingw32/bin/../lib/gcc/i686-w64-mingw32/8.1.0\libstdc++.a(tinfo.o)
                0x6e02a840                std::type_info::operator==(std::type_info const&) const
 .text$_ZNSt13bad_exceptionD0Ev
                0x6e02a880       0x20 C:/Program Files (x86)/mingw-w64/i686-8.1.0-win32-dwarf-rt_v6-rev0/mingw32/bin/../lib/gcc/i686-w64-mingw32/8.1.0\libstdc++.a(eh_exception.o)
                0x6e02a880                std::bad_exception::~bad_exception()
 .text$_ZNSt13bad_exceptionD2Ev
                0x6e02a8a0       0x10 C:/Program Files (x86)/mingw-w64/i686-8.1.0-win32-dwarf-rt_v6-rev0/mingw32/bin/../lib/gcc/i686-w64-mingw32/8.1.0\libstdc++.a(eh_exception.o)
                0x6e02a8a0                std::bad_exception::~bad_exception()
                0x6e02a8a0                std::bad_exception::~bad_exception()
 .text$_ZNSt9bad_allocD0Ev
                0x6e02a8b0       0x30 C:/Program Files (x86)/mingw-w64/i686-8.1.0-win32-dwarf-rt_v6-rev0/mingw32/bin/../lib/gcc/i686-w64-mingw32/8.1.0\libstdc++.a(bad_alloc.o)
                0x6e02a8b0                std::bad_alloc::~bad_alloc()
 .text$_ZNSt9bad_allocD2Ev
                0x6e02a8e0       0x10 C:/Program Files (x86)/mingw-w64/i686-8.1.0-win32-dwarf-rt_v6-rev0/mingw32/bin/../lib/gcc/i686-w64-mingw32/8.1.0\libstdc++.a(bad_alloc.o)
                0x6e02a8e0                std::bad_alloc::~bad_alloc()
                0x6e02a8e0                std::bad_alloc::~bad_alloc()
 .text$_ZNSt9exceptionD0Ev
                0x6e02a8f0       0x20 C:/Program Files (x86)/mingw-w64/i686-8.1.0-win32-dwarf-rt_v6-rev0/mingw32/bin/../lib/gcc/i686-w64-mingw32/8.1.0\libstdc++.a(eh_exception.o)
                0x6e02a8f0                std::exception::~exception()
 .text$_ZNSt9exceptionD2Ev
                0x6e02a910       0x10 C:/Program Files (x86)/mingw-w64/i686-8.1.0-win32-dwarf-rt_v6-rev0/mingw32/bin/../lib/gcc/i686-w64-mingw32/8.1.0\libstdc++.a(eh_exception.o)
                0x6e02a910                std::exception::~exception()
                0x6e02a910                std::exception::~exception()
 .text$_ZNSt9type_infoD0Ev
                0x6e02a920       0x20 C:/Program Files (x86)/mingw-w64/i686-8.1.0-win32-dwarf-rt_v6-rev0/mingw32/bin/../lib/gcc/i686-w64-mingw32/8.1.0\libstdc++.a(tinfo.o)
                0x6e02a920                std::type_info::~type_info()
 .text$_ZNSt9type_infoD2Ev
                0x6e02a940       0x10 C:/Program Files (x86)/mingw-w64/i686-8.1.0-win32-dwarf-rt_v6-rev0/mingw32/bin/../lib/gcc/i686-w64-mingw32/8.1.0\libstdc++.a(tinfo.o)
                0x6e02a940                std::type_info::~type_info()
                0x6e02a940                std::type_info::~type_info()
 .text$_ZSt10unexpectedv
                0x6e02a950       0x10 C:/Program Files (x86)/mingw-w64/i686-8.1.0-win32-dwarf-rt_v6-rev0/mingw32/bin/../lib/gcc/i686-w64-mingw32/8.1.0\libstdc++.a(eh_terminate.o)
                0x6e02a950                std::unexpected()
 .text$_ZSt13get_terminatev
                0x6e02a960       0x10 C:/Program Files (x86)/mingw-w64/i686-8.1.0-win32-dwarf-rt_v6-rev0/mingw32/bin/../lib/gcc/i686-w64-mingw32/8.1.0\libstdc++.a(eh_terminate.o)
                0x6e02a960                std::get_terminate()
 .text$_ZSt13set_terminatePFvvE
                0x6e02a970       0x10 C:/Program Files (x86)/mingw-w64/i686-8.1.0-win32-dwarf-rt_v6-rev0/mingw32/bin/../lib/gcc/i686-w64-mingw32/8.1.0\libstdc++.a(eh_terminate.o)
                0x6e02a970                std::set_terminate(void (*)())
 .text$_ZSt14get_unexpectedv
                0x6e02a980       0x10 C:/Program Files (x86)/mingw-w64/i686-8.1.0-win32-dwarf-rt_v6-rev0/mingw32/bin/../lib/gcc/i686-w64-mingw32/8.1.0\libstdc++.a(eh_terminate.o)
                0x6e02a980                std::get_unexpected()
 .text$_ZSt14set_unexpectedPFvvE
                0x6e02a990       0x10 C:/Program Files (x86)/mingw-w64/i686-8.1.0-win32-dwarf-rt_v6-rev0/mingw32/bin/../lib/gcc/i686-w64-mingw32/8.1.0\libstdc++.a(eh_terminate.o)
                0x6e02a990                std::set_unexpected(void (*)())
 .text$_ZSt15get_new_handlerv
                0x6e02a9a0       0x10 C:/Program Files (x86)/mingw-w64/i686-8.1.0-win32-dwarf-rt_v6-rev0/mingw32/bin/../lib/gcc/i686-w64-mingw32/8.1.0\libstdc++.a(new_handler.o)
                0x6e02a9a0                std::get_new_handler()
 .text$_ZSt15set_new_handlerPFvvE
                0x6e02a9b0       0x10 C:/Program Files (x86)/mingw-w64/i686-8.1.0-win32-dwarf-rt_v6-rev0/mingw32/bin/../lib/gcc/i686-w64-mingw32/8.1.0\libstdc++.a(new_handler.o)
                0x6e02a9b0                std::set_new_handler(void (*)())
 .text$_ZSt18uncaught_exceptionv
                0x6e02a9c0       0x20 C:/Program Files (x86)/mingw-w64/i686-8.1.0-win32-dwarf-rt_v6-rev0/mingw32/bin/../lib/gcc/i686-w64-mingw32/8.1.0\libstdc++.a(eh_catch.o)
                0x6e02a9c0                std::uncaught_exception()
 .text$_ZSt19uncaught_exceptionsv
                0x6e02a9e0       0x10 C:/Program Files (x86)/mingw-w64/i686-8.1.0-win32-dwarf-rt_v6-rev0/mingw32/bin/../lib/gcc/i686-w64-mingw32/8.1.0\libstdc++.a(eh_catch.o)
                0x6e02a9e0                std::uncaught_exceptions()
 .text$_ZSt9terminatev
                0x6e02a9f0       0x10 C:/Program Files (x86)/mingw-w64/i686-8.1.0-win32-dwarf-rt_v6-rev0/mingw32/bin/../lib/gcc/i686-w64-mingw32/8.1.0\libstdc++.a(eh_terminate.o)
                0x6e02a9f0                std::terminate()
 .text$_ZdlPv   0x6e02aa00       0x10 C:/Program Files (x86)/mingw-w64/i686-8.1.0-win32-dwarf-rt_v6-rev0/mingw32/bin/../lib/gcc/i686-w64-mingw32/8.1.0\libstdc++.a(del_op.o)
                0x6e02aa00                operator delete(void*)
 .text$_ZdlPvj  0x6e02aa10       0x10 C:/Program Files (x86)/mingw-w64/i686-8.1.0-win32-dwarf-rt_v6-rev0/mingw32/bin/../lib/gcc/i686-w64-mingw32/8.1.0\libstdc++.a(del_ops.o)
                0x6e02aa10                operator delete(void*, unsigned int)
 .text$_Znwj    0x6e02aa20       0x60 C:/Program Files (x86)/mingw-w64/i686-8.1.0-win32-dwarf-rt_v6-rev0/mingw32/bin/../lib/gcc/i686-w64-mingw32/8.1.0\libstdc++.a(new_op.o)
                0x6e02aa20                operator new(unsigned int)
 .text$__cxa_allocate_dependent_exception
                0x6e02aa80       0x60 C:/Program Files (x86)/mingw-w64/i686-8.1.0-win32-dwarf-rt_v6-rev0/mingw32/bin/../lib/gcc/i686-w64-mingw32/8.1.0\libstdc++.a(eh_alloc.o)
                0x6e02aa80                __cxa_allocate_dependent_exception
 .text$__cxa_allocate_exception
                0x6e02aae0       0x60 C:/Program Files (x86)/mingw-w64/i686-8.1.0-win32-dwarf-rt_v6-rev0/mingw32/bin/../lib/gcc/i686-w64-mingw32/8.1.0\libstdc++.a(eh_alloc.o)
                0x6e02aae0                __cxa_allocate_exception
 .text$__cxa_begin_catch
                0x6e02ab40       0x80 C:/Program Files (x86)/mingw-w64/i686-8.1.0-win32-dwarf-rt_v6-rev0/mingw32/bin/../lib/gcc/i686-w64-mingw32/8.1.0\libstdc++.a(eh_catch.o)
                0x6e02ab40                __cxa_begin_catch
 .text$__cxa_call_terminate
                0x6e02abc0       0x50 C:/Program Files (x86)/mingw-w64/i686-8.1.0-win32-dwarf-rt_v6-rev0/mingw32/bin/../lib/gcc/i686-w64-mingw32/8.1.0\libstdc++.a(eh_call.o)
                0x6e02abc0                __cxa_call_terminate
 .text$__cxa_call_unexpected
                0x6e02ac10       0x40 C:/Program Files (x86)/mingw-w64/i686-8.1.0-win32-dwarf-rt_v6-rev0/mingw32/bin/../lib/gcc/i686-w64-mingw32/8.1.0\libstdc++.a(eh_personality.o)
                0x6e02ac10                __cxa_call_unexpected
 .text$__cxa_current_exception_type
                0x6e02ac50       0x30 C:/Program Files (x86)/mingw-w64/i686-8.1.0-win32-dwarf-rt_v6-rev0/mingw32/bin/../lib/gcc/i686-w64-mingw32/8.1.0\libstdc++.a(eh_type.o)
                0x6e02ac50                __cxa_current_exception_type
 .text$__cxa_deleted_virtual
                0x6e02ac80       0x30 C:/Program Files (x86)/mingw-w64/i686-8.1.0-win32-dwarf-rt_v6-rev0/mingw32/bin/../lib/gcc/i686-w64-mingw32/8.1.0\libstdc++.a(pure.o)
                0x6e02ac80                __cxa_deleted_virtual
 .text$__cxa_end_catch
                0x6e02acb0       0xa0 C:/Program Files (x86)/mingw-w64/i686-8.1.0-win32-dwarf-rt_v6-rev0/mingw32/bin/../lib/gcc/i686-w64-mingw32/8.1.0\libstdc++.a(eh_catch.o)
                0x6e02acb0                __cxa_end_catch
 .text$__cxa_free_dependent_exception
                0x6e02ad50       0x30 C:/Program Files (x86)/mingw-w64/i686-8.1.0-win32-dwarf-rt_v6-rev0/mingw32/bin/../lib/gcc/i686-w64-mingw32/8.1.0\libstdc++.a(eh_alloc.o)
                0x6e02ad50                __cxa_free_dependent_exception
 .text$__cxa_free_exception
                0x6e02ad80       0x30 C:/Program Files (x86)/mingw-w64/i686-8.1.0-win32-dwarf-rt_v6-rev0/mingw32/bin/../lib/gcc/i686-w64-mingw32/8.1.0\libstdc++.a(eh_alloc.o)
                0x6e02ad80                __cxa_free_exception
 .text$__cxa_get_exception_ptr
                0x6e02adb0       0x10 C:/Program Files (x86)/mingw-w64/i686-8.1.0-win32-dwarf-rt_v6-rev0/mingw32/bin/../lib/gcc/i686-w64-mingw32/8.1.0\libstdc++.a(eh_catch.o)
                0x6e02adb0                __cxa_get_exception_ptr
 .text$__cxa_get_globals
                0x6e02adc0       0x20 C:/Program Files (x86)/mingw-w64/i686-8.1.0-win32-dwarf-rt_v6-rev0/mingw32/bin/../lib/gcc/i686-w64-mingw32/8.1.0\libstdc++.a(eh_globals.o)
                0x6e02adc0                __cxa_get_globals
 .text$__cxa_get_globals_fast
                0x6e02ade0       0x10 C:/Program Files (x86)/mingw-w64/i686-8.1.0-win32-dwarf-rt_v6-rev0/mingw32/bin/../lib/gcc/i686-w64-mingw32/8.1.0\libstdc++.a(eh_globals.o)
                0x6e02ade0                __cxa_get_globals_fast
 .text$__cxa_init_primary_exception
                0x6e02adf0       0x50 C:/Program Files (x86)/mingw-w64/i686-8.1.0-win32-dwarf-rt_v6-rev0/mingw32/bin/../lib/gcc/i686-w64-mingw32/8.1.0\libstdc++.a(eh_throw.o)
                0x6e02adf0                __cxa_init_primary_exception
 .text$__cxa_pure_virtual
                0x6e02ae40       0x30 C:/Program Files (x86)/mingw-w64/i686-8.1.0-win32-dwarf-rt_v6-rev0/mingw32/bin/../lib/gcc/i686-w64-mingw32/8.1.0\libstdc++.a(pure.o)
                0x6e02ae40                __cxa_pure_virtual
 .text$__cxa_rethrow
                0x6e02ae70       0x60 C:/Program Files (x86)/mingw-w64/i686-8.1.0-win32-dwarf-rt_v6-rev0/mingw32/bin/../lib/gcc/i686-w64-mingw32/8.1.0\libstdc++.a(eh_throw.o)
                0x6e02ae70                __cxa_rethrow
 .text$__cxa_throw
                0x6e02aed0       0x70 C:/Program Files (x86)/mingw-w64/i686-8.1.0-win32-dwarf-rt_v6-rev0/mingw32/bin/../lib/gcc/i686-w64-mingw32/8.1.0\libstdc++.a(eh_throw.o)
                0x6e02aed0                __cxa_throw
 .text$__gxx_personality_v0
                0x6e02af40      0x620 C:/Program Files (x86)/mingw-w64/i686-8.1.0-win32-dwarf-rt_v6-rev0/mingw32/bin/../lib/gcc/i686-w64-mingw32/8.1.0\libstdc++.a(eh_personality.o)
                0x6e02af40                __gxx_personality_v0
 .text$__tcf_0  0x6e02b560       0x30 C:/Program Files (x86)/mingw-w64/i686-8.1.0-win32-dwarf-rt_v6-rev0/mingw32/bin/../lib/gcc/i686-w64-mingw32/8.1.0\libstdc++.a(eh_alloc.o)
 *(.text.*)
 .text.unlikely._ZN12_GLOBAL__N_14pool4freeEPv.constprop.2
                0x6e02b590       0x14 C:/Program Files (x86)/mingw-w64/i686-8.1.0-win32-dwarf-rt_v6-rev0/mingw32/bin/../lib/gcc/i686-w64-mingw32/8.1.0\libstdc++.a(eh_alloc.o)
 .text.unlikely._ZN12_GLOBAL__N_14pool8allocateEj.constprop.3
                0x6e02b5a4       0x14 C:/Program Files (x86)/mingw-w64/i686-8.1.0-win32-dwarf-rt_v6-rev0/mingw32/bin/../lib/gcc/i686-w64-mingw32/8.1.0\libstdc++.a(eh_alloc.o)
 *fill*         0x6e02b5b8        0x8 
 .text.startup._GLOBAL__sub_I__ZN9__gnu_cxx9__freeresEv
                0x6e02b5c0       0x80 C:/Program Files (x86)/mingw-w64/i686-8.1.0-win32-dwarf-rt_v6-rev0/mingw32/bin/../lib/gcc/i686-w64-mingw32/8.1.0\libstdc++.a(eh_alloc.o)
 .text.unlikely._ZL28read_encoded_value_with_basehjPKhPj
                0x6e02b640        0x8 C:/Program Files (x86)/mingw-w64/i686-8.1.0-win32-dwarf-rt_v6-rev0/mingw32/bin/../lib/gcc/i686-w64-mingw32/8.1.0\libstdc++.a(eh_personality.o)
 .text.unlikely.__gxx_personality_v0
                0x6e02b648       0x10 C:/Program Files (x86)/mingw-w64/i686-8.1.0-win32-dwarf-rt_v6-rev0/mingw32/bin/../lib/gcc/i686-w64-mingw32/8.1.0\libstdc++.a(eh_personality.o)
 .text.unlikely.__cxa_call_unexpected
                0x6e02b658       0xa0 C:/Program Files (x86)/mingw-w64/i686-8.1.0-win32-dwarf-rt_v6-rev0/mingw32/bin/../lib/gcc/i686-w64-mingw32/8.1.0\libstdc++.a(eh_personality.o)
 .text.unlikely._ZN10__cxxabiv111__terminateEPFvvE
                0x6e02b6f8       0x30 C:/Program Files (x86)/mingw-w64/i686-8.1.0-win32-dwarf-rt_v6-rev0/mingw32/bin/../lib/gcc/i686-w64-mingw32/8.1.0\libstdc++.a(eh_terminate.o)
 .text.unlikely._ZN9__gnu_cxx27__verbose_terminate_handlerEv
                0x6e02b728       0xa0 C:/Program Files (x86)/mingw-w64/i686-8.1.0-win32-dwarf-rt_v6-rev0/mingw32/bin/../lib/gcc/i686-w64-mingw32/8.1.0\libstdc++.a(vterminate.o)
 .text.unlikely
                0x6e02b7c8       0x84 C:/Program Files (x86)/mingw-w64/i686-8.1.0-win32-dwarf-rt_v6-rev0/mingw32/bin/../lib/gcc/i686-w64-mingw32/8.1.0\libstdc++.a(cp-demangle.o)
 .text.unlikely
                0x6e02b84c       0x5c C:/Program Files (x86)/mingw-w64/i686-8.1.0-win32-dwarf-rt_v6-rev0/mingw32/bin/../lib/gcc/i686-w64-mingw32/8.1.0/../../../../i686-w64-mingw32/lib/../lib\libmingw32.a(lib32_libmingw32_a-pseudo-reloc.o)
 .text.unlikely
                0x6e02b8a8       0x3c C:/Program Files (x86)/mingw-w64/i686-8.1.0-win32-dwarf-rt_v6-rev0/mingw32/bin/../lib/gcc/i686-w64-mingw32/8.1.0\libgcc_eh.a(unwind-dw2.o)
 .text.unlikely
                0x6e02b8e4        0x8 C:/Program Files (x86)/mingw-w64/i686-8.1.0-win32-dwarf-rt_v6-rev0/mingw32/bin/../lib/gcc/i686-w64-mingw32/8.1.0\libgcc_eh.a(unwind-dw2-fde.o)
 .text.unlikely
                0x6e02b8ec       0x10 C:/Program Files (x86)/mingw-w64/i686-8.1.0-win32-dwarf-rt_v6-rev0/mingw32/bin/../lib/gcc/i686-w64-mingw32/8.1.0\libgcc_eh.a(emutls.o)
 *fill*         0x6e02b8fc        0x4 
 .text.startup  0x6e02b900       0x10 C:/Program Files (x86)/mingw-w64/i686-8.1.0-win32-dwarf-rt_v6-rev0/mingw32/bin/../lib/gcc/i686-w64-mingw32/8.1.0/crtend.o
 *(.gnu.linkonce.t.*)
 *(.glue_7t)
 *(.glue_7)
                0x6e02b910                ___CTOR_LIST__ = .
                0x6e02b910                __CTOR_LIST__ = .
                0x6e02b910        0x4 LONG 0xffffffff
 *(.ctors)
 .ctors         0x6e02b914        0x4 C:/Program Files (x86)/mingw-w64/i686-8.1.0-win32-dwarf-rt_v6-rev0/mingw32/bin/../lib/gcc/i686-w64-mingw32/8.1.0\libstdc++.a(eh_alloc.o)
 *(.ctor)
 *(SORT_BY_NAME(.ctors.*))
 .ctors.65535   0x6e02b918        0x4 C:/Program Files (x86)/mingw-w64/i686-8.1.0-win32-dwarf-rt_v6-rev0/mingw32/bin/../lib/gcc/i686-w64-mingw32/8.1.0/crtend.o
                0x6e02b91c        0x4 LONG 0x0
                0x6e02b920                ___DTOR_LIST__ = .
                0x6e02b920                __DTOR_LIST__ = .
                0x6e02b920        0x4 LONG 0xffffffff
 *(.dtors)
 *(.dtor)
 *(SORT_BY_NAME(.dtors.*))
                0x6e02b924        0x4 LONG 0x0
 *(.fini)
 *(.gcc_exc)
                [!provide]                PROVIDE (etext = .)
                [!provide]                PROVIDE (_etext = .)
 *(.gcc_except_table)
 .gcc_except_table
                0x6e02b928       0x38 main.o
 .gcc_except_table
                0x6e02b960       0x64 C:/Program Files (x86)/mingw-w64/i686-8.1.0-win32-dwarf-rt_v6-rev0/mingw32/bin/../lib/gcc/i686-w64-mingw32/8.1.0\libstdc++.a(eh_alloc.o)
 .gcc_except_table
                0x6e02b9c4       0x50 C:/Program Files (x86)/mingw-w64/i686-8.1.0-win32-dwarf-rt_v6-rev0/mingw32/bin/../lib/gcc/i686-w64-mingw32/8.1.0\libstdc++.a(eh_personality.o)
 .gcc_except_table
                0x6e02ba14       0x38 C:/Program Files (x86)/mingw-w64/i686-8.1.0-win32-dwarf-rt_v6-rev0/mingw32/bin/../lib/gcc/i686-w64-mingw32/8.1.0\libstdc++.a(eh_terminate.o)
 .gcc_except_table
                0x6e02ba4c       0x3c C:/Program Files (x86)/mingw-w64/i686-8.1.0-win32-dwarf-rt_v6-rev0/mingw32/bin/../lib/gcc/i686-w64-mingw32/8.1.0\libstdc++.a(vterminate.o)

.data           0x6e02c000     0x3a00
                0x6e02c000                __data_start__ = .
 *(.data)
 .data          0x6e02c000        0x0 C:/Program Files (x86)/mingw-w64/i686-8.1.0-win32-dwarf-rt_v6-rev0/mingw32/bin/../lib/gcc/i686-w64-mingw32/8.1.0/../../../../i686-w64-mingw32/lib/../lib/dllcrt2.o
 .data          0x6e02c000        0x4 C:/Program Files (x86)/mingw-w64/i686-8.1.0-win32-dwarf-rt_v6-rev0/mingw32/bin/../lib/gcc/i686-w64-mingw32/8.1.0/crtbegin.o
 .data          0x6e02c004        0x0 rsa_verify.o
 .data          0x6e02c004        0x0 rc5_32.o
 .data          0x6e02c004        0x0 pehlp.o
 .data          0x6e02c004        0x0 checksumengine.o
 *fill*         0x6e02c004       0x1c 
 .data          0x6e02c020     0x37c0 symbollist.includer.o
                0x6e02c020                symbolversions
                0x6e02c040                xac_gamebindata_18_5
 .data          0x6e02f7e0        0x0 main.o
 .data          0x6e02f7e0        0x0 adler32.o
 .data          0x6e02f7e0        0x0 tiny_msg.o
 .data          0x6e02f7e0        0x0 elfhlp.o
 .data          0x6e02f7e0        0x0 basic.o
 .data          0x6e02f7e0        0x0 blake2s-ref.o
 .data          0x6e02f7e0        0x0 .\libtomcrypt.a(base64_decode.o)
 .data          0x6e02f7e0        0x0 .\libtomcrypt.a(crypt_argchk.o)
 .data          0x6e02f7e0        0x0 .\libtomcrypt.a(crypt_ltc_mp_descriptor.o)
 .data          0x6e02f7e0        0x0 .\libtomcrypt.a(ltm_desc.o)
 .data          0x6e02f7e0        0x0 .\libtomcrypt.a(pkcs_1_v1_5_decode.o)
 .data          0x6e02f7e0        0x0 .\libtomcrypt.a(rsa_exptmod.o)
 .data          0x6e02f7e0        0x0 .\libtomcrypt.a(rsa_free.o)
 .data          0x6e02f7e0        0x0 .\libtomcrypt.a(rsa_import.o)
 .data          0x6e02f7e0        0x0 .\libtomcrypt.a(rsa_make_key.o)
 .data          0x6e02f7e0        0x0 .\libtomcrypt.a(sha256.o)
 .data          0x6e02f7e0        0x0 .\libtomcrypt.a(zeromem.o)
 .data          0x6e02f7e0        0x0 .\libtomcrypt.a(bn_mp_2expt.o)
 .data          0x6e02f7e0        0x0 .\libtomcrypt.a(bn_mp_add.o)
 .data          0x6e02f7e0        0x0 .\libtomcrypt.a(bn_mp_add_d.o)
 .data          0x6e02f7e0        0x0 .\libtomcrypt.a(bn_mp_clamp.o)
 .data          0x6e02f7e0        0x0 .\libtomcrypt.a(bn_mp_clear.o)
 .data          0x6e02f7e0        0x0 .\libtomcrypt.a(bn_mp_cmp.o)
 .data          0x6e02f7e0        0x0 .\libtomcrypt.a(bn_mp_cmp_d.o)
 .data          0x6e02f7e0        0x0 .\libtomcrypt.a(bn_mp_cmp_mag.o)
 .data          0x6e02f7e0        0x0 .\libtomcrypt.a(bn_mp_cnt_lsb.o)
 .data          0x6e02f7e0        0x0 .\libtomcrypt.a(bn_mp_copy.o)
 .data          0x6e02f7e0        0x0 .\libtomcrypt.a(bn_mp_count_bits.o)
 .data          0x6e02f7e0        0x0 .\libtomcrypt.a(bn_mp_div.o)
 .data          0x6e02f7e0        0x0 .\libtomcrypt.a(bn_mp_div_2.o)
 .data          0x6e02f7e0        0x0 .\libtomcrypt.a(bn_mp_div_2d.o)
 .data          0x6e02f7e0        0x0 .\libtomcrypt.a(bn_mp_exch.o)
 .data          0x6e02f7e0        0x0 .\libtomcrypt.a(bn_mp_exptmod.o)
 .data          0x6e02f7e0        0x0 .\libtomcrypt.a(bn_mp_exptmod_fast.o)
 .data          0x6e02f7e0        0x0 .\libtomcrypt.a(bn_mp_gcd.o)
 .data          0x6e02f7e0        0x0 .\libtomcrypt.a(bn_mp_get_int.o)
 .data          0x6e02f7e0        0x0 .\libtomcrypt.a(bn_mp_grow.o)
 .data          0x6e02f7e0        0x0 .\libtomcrypt.a(bn_mp_init.o)
 .data          0x6e02f7e0        0x0 .\libtomcrypt.a(bn_mp_init_copy.o)
 .data          0x6e02f7e0        0x0 .\libtomcrypt.a(bn_mp_init_size.o)
 .data          0x6e02f7e0        0x0 .\libtomcrypt.a(bn_mp_invmod.o)
 .data          0x6e02f7e0        0x0 .\libtomcrypt.a(bn_mp_invmod_slow.o)
 .data          0x6e02f7e0        0x0 .\libtomcrypt.a(bn_mp_lcm.o)
 .data          0x6e02f7e0        0x0 .\libtomcrypt.a(bn_mp_lshd.o)
 .data          0x6e02f7e0        0x0 .\libtomcrypt.a(bn_mp_mod.o)
 .data          0x6e02f7e0        0x0 .\libtomcrypt.a(bn_mp_mod_2d.o)
 .data          0x6e02f7e0        0x0 .\libtomcrypt.a(bn_mp_mod_d.o)
 .data          0x6e02f7e0        0x0 .\libtomcrypt.a(bn_mp_montgomery_calc_normalization.o)
 .data          0x6e02f7e0        0x0 .\libtomcrypt.a(bn_mp_montgomery_reduce.o)
 .data          0x6e02f7e0        0x0 .\libtomcrypt.a(bn_mp_montgomery_setup.o)
 .data          0x6e02f7e0        0x0 .\libtomcrypt.a(bn_mp_mul.o)
 .data          0x6e02f7e0        0x0 .\libtomcrypt.a(bn_mp_mul_2.o)
 .data          0x6e02f7e0        0x0 .\libtomcrypt.a(bn_mp_mul_2d.o)
 .data          0x6e02f7e0        0x0 .\libtomcrypt.a(bn_mp_mul_d.o)
 .data          0x6e02f7e0        0x0 .\libtomcrypt.a(bn_mp_mulmod.o)
 .data          0x6e02f7e0        0x0 .\libtomcrypt.a(bn_mp_neg.o)
 .data          0x6e02f7e0        0x0 .\libtomcrypt.a(bn_mp_prime_is_prime.o)
 .data          0x6e02f7e0        0x0 .\libtomcrypt.a(bn_mp_prime_miller_rabin.o)
 .data          0x6e02f7e0        0x0 .\libtomcrypt.a(bn_mp_read_radix.o)
 .data          0x6e02f7e0        0x0 .\libtomcrypt.a(bn_mp_read_unsigned_bin.o)
 .data          0x6e02f7e0        0x0 .\libtomcrypt.a(bn_mp_reduce_2k.o)
 .data          0x6e02f7e0        0x0 .\libtomcrypt.a(bn_mp_reduce_2k_setup.o)
 .data          0x6e02f7e0        0x0 .\libtomcrypt.a(bn_mp_reduce_is_2k.o)
 .data          0x6e02f7e0        0x0 .\libtomcrypt.a(bn_mp_reduce_is_2k_l.o)
 .data          0x6e02f7e0        0x0 .\libtomcrypt.a(bn_mp_rshd.o)
 .data          0x6e02f7e0        0x0 .\libtomcrypt.a(bn_mp_set.o)
 .data          0x6e02f7e0        0x0 .\libtomcrypt.a(bn_mp_set_int.o)
 .data          0x6e02f7e0        0x0 .\libtomcrypt.a(bn_mp_sqr.o)
 .data          0x6e02f7e0        0x0 .\libtomcrypt.a(bn_mp_sqrmod.o)
 .data          0x6e02f7e0        0x0 .\libtomcrypt.a(bn_mp_sub.o)
 .data          0x6e02f7e0        0x0 .\libtomcrypt.a(bn_mp_sub_d.o)
 .data          0x6e02f7e0        0x0 .\libtomcrypt.a(bn_mp_to_unsigned_bin.o)
 .data          0x6e02f7e0        0x0 .\libtomcrypt.a(bn_mp_toom_mul.o)
 .data          0x6e02f7e0        0x0 .\libtomcrypt.a(bn_mp_toom_sqr.o)
 .data          0x6e02f7e0        0x0 .\libtomcrypt.a(bn_mp_toradix.o)
 .data          0x6e02f7e0        0x0 .\libtomcrypt.a(bn_mp_unsigned_bin_size.o)
 .data          0x6e02f7e0        0x0 .\libtomcrypt.a(bn_mp_zero.o)
 .data          0x6e02f7e0        0x0 .\libtomcrypt.a(bn_prime_tab.o)
 .data          0x6e02f7e0        0x0 .\libtomcrypt.a(bn_reverse.o)
 .data          0x6e02f7e0        0x0 .\libtomcrypt.a(bn_s_mp_add.o)
 .data          0x6e02f7e0        0x0 .\libtomcrypt.a(bn_s_mp_exptmod.o)
 .data          0x6e02f7e0        0x0 .\libtomcrypt.a(bn_s_mp_mul_digs.o)
 .data          0x6e02f7e0        0x0 .\libtomcrypt.a(bn_s_mp_sqr.o)
 .data          0x6e02f7e0        0x0 .\libtomcrypt.a(bn_s_mp_sub.o)
 .data          0x6e02f7e0       0x10 .\libtomcrypt.a(bncore.o)
                0x6e02f7e0                TOOM_SQR_CUTOFF
                0x6e02f7e4                TOOM_MUL_CUTOFF
                0x6e02f7e8                KARATSUBA_SQR_CUTOFF
                0x6e02f7ec                KARATSUBA_MUL_CUTOFF
 .data          0x6e02f7f0        0x0 .\libtomcrypt.a(crypt_prng_is_valid.o)
 .data          0x6e02f7f0        0x0 .\libtomcrypt.a(der_decode_sequence_ex.o)
 .data          0x6e02f7f0        0x0 .\libtomcrypt.a(der_decode_sequence_multi.o)
 .data          0x6e02f7f0        0x0 .\libtomcrypt.a(der_decode_short_integer.o)
 .data          0x6e02f7f0        0x0 .\libtomcrypt.a(der_decode_utctime.o)
 .data          0x6e02f7f0        0x0 .\libtomcrypt.a(der_decode_utf8_string.o)
 .data          0x6e02f7f0        0x0 .\libtomcrypt.a(der_length_bit_string.o)
 .data          0x6e02f7f0        0x0 .\libtomcrypt.a(der_length_boolean.o)
 .data          0x6e02f7f0        0x0 .\libtomcrypt.a(der_length_ia5_string.o)
 .data          0x6e02f7f0        0x0 .\libtomcrypt.a(der_length_integer.o)
 .data          0x6e02f7f0        0x0 .\libtomcrypt.a(der_length_object_identifier.o)
 .data          0x6e02f7f0        0x0 .\libtomcrypt.a(der_length_octet_string.o)
 .data          0x6e02f7f0        0x0 .\libtomcrypt.a(der_length_printable_string.o)
 .data          0x6e02f7f0        0x0 .\libtomcrypt.a(der_length_sequence.o)
 .data          0x6e02f7f0        0x0 .\libtomcrypt.a(der_length_short_integer.o)
 .data          0x6e02f7f0        0x0 .\libtomcrypt.a(der_length_utctime.o)
 .data          0x6e02f7f0        0x0 .\libtomcrypt.a(der_length_utf8_string.o)
 .data          0x6e02f7f0        0x0 .\libtomcrypt.a(multi.o)
 .data          0x6e02f7f0        0x0 .\libtomcrypt.a(rand_prime.o)
 .data          0x6e02f7f0        0x0 .\libtomcrypt.a(bn_fast_mp_invmod.o)
 .data          0x6e02f7f0        0x0 .\libtomcrypt.a(bn_fast_mp_montgomery_reduce.o)
 .data          0x6e02f7f0        0x0 .\libtomcrypt.a(bn_fast_s_mp_mul_digs.o)
 .data          0x6e02f7f0        0x0 .\libtomcrypt.a(bn_fast_s_mp_sqr.o)
 .data          0x6e02f7f0        0x0 .\libtomcrypt.a(bn_mp_abs.o)
 .data          0x6e02f7f0        0x0 .\libtomcrypt.a(bn_mp_clear_multi.o)
 .data          0x6e02f7f0        0x0 .\libtomcrypt.a(bn_mp_div_3.o)
 .data          0x6e02f7f0        0x0 .\libtomcrypt.a(bn_mp_div_d.o)
 .data          0x6e02f7f0        0x0 .\libtomcrypt.a(bn_mp_dr_is_modulus.o)
 .data          0x6e02f7f0        0x0 .\libtomcrypt.a(bn_mp_dr_reduce.o)
 .data          0x6e02f7f0        0x0 .\libtomcrypt.a(bn_mp_dr_setup.o)
 .data          0x6e02f7f0        0x0 .\libtomcrypt.a(bn_mp_init_multi.o)
 .data          0x6e02f7f0        0x0 .\libtomcrypt.a(bn_mp_karatsuba_mul.o)
 .data          0x6e02f7f0        0x0 .\libtomcrypt.a(bn_mp_karatsuba_sqr.o)
 .data          0x6e02f7f0        0x0 .\libtomcrypt.a(bn_mp_prime_is_divisible.o)
 .data          0x6e02f7f0        0x4 .\libtomcrypt.a(bn_mp_radix_smap.o)
                0x6e02f7f0                mp_s_rmap
 .data          0x6e02f7f4        0x0 .\libtomcrypt.a(bn_mp_reduce.o)
 .data          0x6e02f7f4        0x0 .\libtomcrypt.a(bn_mp_reduce_2k_l.o)
 .data          0x6e02f7f4        0x0 .\libtomcrypt.a(bn_mp_reduce_2k_setup_l.o)
 .data          0x6e02f7f4        0x0 .\libtomcrypt.a(bn_mp_reduce_setup.o)
 .data          0x6e02f7f4        0x0 .\libtomcrypt.a(bn_s_mp_mul_high_digs.o)
 .data          0x6e02f7f4        0x0 .\libtomcrypt.a(crypt_prng_descriptor.o)
 .data          0x6e02f7f4        0x0 .\libtomcrypt.a(der_decode_bit_string.o)
 .data          0x6e02f7f4        0x0 .\libtomcrypt.a(der_decode_boolean.o)
 .data          0x6e02f7f4        0x0 .\libtomcrypt.a(der_decode_choice.o)
 .data          0x6e02f7f4        0x0 .\libtomcrypt.a(der_decode_ia5_string.o)
 .data          0x6e02f7f4        0x0 .\libtomcrypt.a(der_decode_integer.o)
 .data          0x6e02f7f4        0x0 .\libtomcrypt.a(der_decode_object_identifier.o)
 .data          0x6e02f7f4        0x0 .\libtomcrypt.a(der_decode_octet_string.o)
 .data          0x6e02f7f4        0x0 .\libtomcrypt.a(der_decode_printable_string.o)
 .data          0x6e02f7f4        0x0 .\libtomcrypt.a(bn_fast_s_mp_mul_high_digs.o)
 .data          0x6e02f7f4        0x0 C:/Program Files (x86)/mingw-w64/i686-8.1.0-win32-dwarf-rt_v6-rev0/mingw32/bin/../lib/gcc/i686-w64-mingw32/8.1.0\libstdc++.a(class_type_info.o)
 .data          0x6e02f7f4        0x0 C:/Program Files (x86)/mingw-w64/i686-8.1.0-win32-dwarf-rt_v6-rev0/mingw32/bin/../lib/gcc/i686-w64-mingw32/8.1.0\libstdc++.a(del_ops.o)
 .data          0x6e02f7f4        0x0 C:/Program Files (x86)/mingw-w64/i686-8.1.0-win32-dwarf-rt_v6-rev0/mingw32/bin/../lib/gcc/i686-w64-mingw32/8.1.0\libstdc++.a(eh_alloc.o)
 .data          0x6e02f7f4        0x0 C:/Program Files (x86)/mingw-w64/i686-8.1.0-win32-dwarf-rt_v6-rev0/mingw32/bin/../lib/gcc/i686-w64-mingw32/8.1.0\libstdc++.a(eh_catch.o)
 .data          0x6e02f7f4        0x0 C:/Program Files (x86)/mingw-w64/i686-8.1.0-win32-dwarf-rt_v6-rev0/mingw32/bin/../lib/gcc/i686-w64-mingw32/8.1.0\libstdc++.a(eh_exception.o)
 .data          0x6e02f7f4        0x0 C:/Program Files (x86)/mingw-w64/i686-8.1.0-win32-dwarf-rt_v6-rev0/mingw32/bin/../lib/gcc/i686-w64-mingw32/8.1.0\libstdc++.a(eh_globals.o)
 .data          0x6e02f7f4        0x0 C:/Program Files (x86)/mingw-w64/i686-8.1.0-win32-dwarf-rt_v6-rev0/mingw32/bin/../lib/gcc/i686-w64-mingw32/8.1.0\libstdc++.a(eh_personality.o)
 .data          0x6e02f7f4        0x0 C:/Program Files (x86)/mingw-w64/i686-8.1.0-win32-dwarf-rt_v6-rev0/mingw32/bin/../lib/gcc/i686-w64-mingw32/8.1.0\libstdc++.a(eh_terminate.o)
 .data          0x6e02f7f4        0x0 C:/Program Files (x86)/mingw-w64/i686-8.1.0-win32-dwarf-rt_v6-rev0/mingw32/bin/../lib/gcc/i686-w64-mingw32/8.1.0\libstdc++.a(eh_term_handler.o)
 .data          0x6e02f7f4        0x0 C:/Program Files (x86)/mingw-w64/i686-8.1.0-win32-dwarf-rt_v6-rev0/mingw32/bin/../lib/gcc/i686-w64-mingw32/8.1.0\libstdc++.a(eh_throw.o)
 .data          0x6e02f7f4        0x0 C:/Program Files (x86)/mingw-w64/i686-8.1.0-win32-dwarf-rt_v6-rev0/mingw32/bin/../lib/gcc/i686-w64-mingw32/8.1.0\libstdc++.a(eh_unex_handler.o)
 .data          0x6e02f7f4        0x0 C:/Program Files (x86)/mingw-w64/i686-8.1.0-win32-dwarf-rt_v6-rev0/mingw32/bin/../lib/gcc/i686-w64-mingw32/8.1.0\libstdc++.a(new_op.o)
 .data          0x6e02f7f4        0x0 C:/Program Files (x86)/mingw-w64/i686-8.1.0-win32-dwarf-rt_v6-rev0/mingw32/bin/../lib/gcc/i686-w64-mingw32/8.1.0\libstdc++.a(pure.o)
 .data          0x6e02f7f4        0x0 C:/Program Files (x86)/mingw-w64/i686-8.1.0-win32-dwarf-rt_v6-rev0/mingw32/bin/../lib/gcc/i686-w64-mingw32/8.1.0\libstdc++.a(si_class_type_info.o)
 .data          0x6e02f7f4        0x0 C:/Program Files (x86)/mingw-w64/i686-8.1.0-win32-dwarf-rt_v6-rev0/mingw32/bin/../lib/gcc/i686-w64-mingw32/8.1.0\libstdc++.a(tinfo.o)
 .data          0x6e02f7f4        0x0 C:/Program Files (x86)/mingw-w64/i686-8.1.0-win32-dwarf-rt_v6-rev0/mingw32/bin/../lib/gcc/i686-w64-mingw32/8.1.0\libstdc++.a(vterminate.o)
 .data          0x6e02f7f4        0x0 C:/Program Files (x86)/mingw-w64/i686-8.1.0-win32-dwarf-rt_v6-rev0/mingw32/bin/../lib/gcc/i686-w64-mingw32/8.1.0\libstdc++.a(bad_alloc.o)
 .data          0x6e02f7f4        0x0 C:/Program Files (x86)/mingw-w64/i686-8.1.0-win32-dwarf-rt_v6-rev0/mingw32/bin/../lib/gcc/i686-w64-mingw32/8.1.0\libstdc++.a(cp-demangle.o)
 .data          0x6e02f7f4        0x0 C:/Program Files (x86)/mingw-w64/i686-8.1.0-win32-dwarf-rt_v6-rev0/mingw32/bin/../lib/gcc/i686-w64-mingw32/8.1.0\libstdc++.a(del_op.o)
 .data          0x6e02f7f4        0x0 C:/Program Files (x86)/mingw-w64/i686-8.1.0-win32-dwarf-rt_v6-rev0/mingw32/bin/../lib/gcc/i686-w64-mingw32/8.1.0\libstdc++.a(eh_call.o)
 .data          0x6e02f7f4        0x0 C:/Program Files (x86)/mingw-w64/i686-8.1.0-win32-dwarf-rt_v6-rev0/mingw32/bin/../lib/gcc/i686-w64-mingw32/8.1.0\libstdc++.a(eh_type.o)
 .data          0x6e02f7f4        0x0 C:/Program Files (x86)/mingw-w64/i686-8.1.0-win32-dwarf-rt_v6-rev0/mingw32/bin/../lib/gcc/i686-w64-mingw32/8.1.0\libstdc++.a(new_handler.o)
 .data          0x6e02f7f4        0x0 C:/Program Files (x86)/mingw-w64/i686-8.1.0-win32-dwarf-rt_v6-rev0/mingw32/bin/../lib/gcc/i686-w64-mingw32/8.1.0/../../../../i686-w64-mingw32/lib/../lib\libkernel32.a(dgzcs01243.o)
 .data          0x6e02f7f4        0x0 C:/Program Files (x86)/mingw-w64/i686-8.1.0-win32-dwarf-rt_v6-rev0/mingw32/bin/../lib/gcc/i686-w64-mingw32/8.1.0/../../../../i686-w64-mingw32/lib/../lib\libkernel32.a(dgzcs01239.o)
 .data          0x6e02f7f4        0x0 C:/Program Files (x86)/mingw-w64/i686-8.1.0-win32-dwarf-rt_v6-rev0/mingw32/bin/../lib/gcc/i686-w64-mingw32/8.1.0/../../../../i686-w64-mingw32/lib/../lib\libkernel32.a(dgzcs01233.o)
 .data          0x6e02f7f4        0x0 C:/Program Files (x86)/mingw-w64/i686-8.1.0-win32-dwarf-rt_v6-rev0/mingw32/bin/../lib/gcc/i686-w64-mingw32/8.1.0/../../../../i686-w64-mingw32/lib/../lib\libkernel32.a(dgzcs01176.o)
 .data          0x6e02f7f4        0x0 C:/Program Files (x86)/mingw-w64/i686-8.1.0-win32-dwarf-rt_v6-rev0/mingw32/bin/../lib/gcc/i686-w64-mingw32/8.1.0/../../../../i686-w64-mingw32/lib/../lib\libkernel32.a(dgzcs00839.o)
 .data          0x6e02f7f4        0x0 C:/Program Files (x86)/mingw-w64/i686-8.1.0-win32-dwarf-rt_v6-rev0/mingw32/bin/../lib/gcc/i686-w64-mingw32/8.1.0/../../../../i686-w64-mingw32/lib/../lib\libkernel32.a(dgzcs00584.o)
 .data          0x6e02f7f4        0x0 C:/Program Files (x86)/mingw-w64/i686-8.1.0-win32-dwarf-rt_v6-rev0/mingw32/bin/../lib/gcc/i686-w64-mingw32/8.1.0/../../../../i686-w64-mingw32/lib/../lib\libkernel32.a(dgzcs00536.o)
 .data          0x6e02f7f4        0x0 C:/Program Files (x86)/mingw-w64/i686-8.1.0-win32-dwarf-rt_v6-rev0/mingw32/bin/../lib/gcc/i686-w64-mingw32/8.1.0/../../../../i686-w64-mingw32/lib/../lib\libkernel32.a(dgzcs00535.o)
 .data          0x6e02f7f4        0x0 C:/Program Files (x86)/mingw-w64/i686-8.1.0-win32-dwarf-rt_v6-rev0/mingw32/bin/../lib/gcc/i686-w64-mingw32/8.1.0/../../../../i686-w64-mingw32/lib/../lib\libkernel32.a(dgzcs00359.o)
 .data          0x6e02f7f4        0x0 C:/Program Files (x86)/mingw-w64/i686-8.1.0-win32-dwarf-rt_v6-rev0/mingw32/bin/../lib/gcc/i686-w64-mingw32/8.1.0/../../../../i686-w64-mingw32/lib/../lib\libkernel32.a(dgzch.o)
 .data          0x6e02f7f4        0x0 C:/Program Files (x86)/mingw-w64/i686-8.1.0-win32-dwarf-rt_v6-rev0/mingw32/bin/../lib/gcc/i686-w64-mingw32/8.1.0/../../../../i686-w64-mingw32/lib/../lib\libkernel32.a(dgzct.o)
 .data          0x6e02f7f4        0x4 C:/Program Files (x86)/mingw-w64/i686-8.1.0-win32-dwarf-rt_v6-rev0/mingw32/bin/../lib/gcc/i686-w64-mingw32/8.1.0/../../../../i686-w64-mingw32/lib/../lib\libmingw32.a(lib32_libmingw32_a-gccmain.o)
 .data          0x6e02f7f8        0x8 C:/Program Files (x86)/mingw-w64/i686-8.1.0-win32-dwarf-rt_v6-rev0/mingw32/bin/../lib/gcc/i686-w64-mingw32/8.1.0/../../../../i686-w64-mingw32/lib/../lib\libmingw32.a(lib32_libmingw32_a-natstart.o)
                0x6e02f7f8                __native_vcclrit_reason
                0x6e02f7fc                __native_dllmain_reason
 .data          0x6e02f800        0x0 C:/Program Files (x86)/mingw-w64/i686-8.1.0-win32-dwarf-rt_v6-rev0/mingw32/bin/../lib/gcc/i686-w64-mingw32/8.1.0/../../../../i686-w64-mingw32/lib/../lib\libmingw32.a(lib32_libmingw32_a-gs_support.o)
 .data          0x6e02f800        0x0 C:/Program Files (x86)/mingw-w64/i686-8.1.0-win32-dwarf-rt_v6-rev0/mingw32/bin/../lib/gcc/i686-w64-mingw32/8.1.0/../../../../i686-w64-mingw32/lib/../lib\libmingw32.a(lib32_libmingw32_a-tlssup.o)
 .data          0x6e02f800        0x0 C:/Program Files (x86)/mingw-w64/i686-8.1.0-win32-dwarf-rt_v6-rev0/mingw32/bin/../lib/gcc/i686-w64-mingw32/8.1.0/../../../../i686-w64-mingw32/lib/../lib\libmingw32.a(lib32_libmingw32_a-cinitexe.o)
 .data          0x6e02f800        0x0 C:/Program Files (x86)/mingw-w64/i686-8.1.0-win32-dwarf-rt_v6-rev0/mingw32/bin/../lib/gcc/i686-w64-mingw32/8.1.0/../../../../i686-w64-mingw32/lib/../lib\libmingw32.a(lib32_libmingw32_a-mingw_helpers.o)
 .data          0x6e02f800        0x0 C:/Program Files (x86)/mingw-w64/i686-8.1.0-win32-dwarf-rt_v6-rev0/mingw32/bin/../lib/gcc/i686-w64-mingw32/8.1.0/../../../../i686-w64-mingw32/lib/../lib\libmingw32.a(lib32_libmingw32_a-pseudo-reloc.o)
 .data          0x6e02f800        0x0 C:/Program Files (x86)/mingw-w64/i686-8.1.0-win32-dwarf-rt_v6-rev0/mingw32/bin/../lib/gcc/i686-w64-mingw32/8.1.0/../../../../i686-w64-mingw32/lib/../lib\libmingw32.a(lib32_libmingw32_a-tlsthrd.o)
 .data          0x6e02f800        0x4 C:/Program Files (x86)/mingw-w64/i686-8.1.0-win32-dwarf-rt_v6-rev0/mingw32/bin/../lib/gcc/i686-w64-mingw32/8.1.0/../../../../i686-w64-mingw32/lib/../lib\libmingw32.a(lib32_libmingw32_a-tlsmcrt.o)
                0x6e02f800                _CRT_MT
 .data          0x6e02f804        0x0 C:/Program Files (x86)/mingw-w64/i686-8.1.0-win32-dwarf-rt_v6-rev0/mingw32/bin/../lib/gcc/i686-w64-mingw32/8.1.0/../../../../i686-w64-mingw32/lib/../lib\libmingw32.a(lib32_libmingw32_a-pseudo-reloc-list.o)
 .data          0x6e02f804        0x0 C:/Program Files (x86)/mingw-w64/i686-8.1.0-win32-dwarf-rt_v6-rev0/mingw32/bin/../lib/gcc/i686-w64-mingw32/8.1.0/../../../../i686-w64-mingw32/lib/../lib\libmingw32.a(lib32_libmingw32_a-pesect.o)
 .data          0x6e02f804        0x0 C:/Program Files (x86)/mingw-w64/i686-8.1.0-win32-dwarf-rt_v6-rev0/mingw32/bin/../lib/gcc/i686-w64-mingw32/8.1.0/../../../../i686-w64-mingw32/lib/../lib\libmingw32.a(lib32_libmingw32_a-CRT_fp10.o)
 .data          0x6e02f804        0x0 C:/Program Files (x86)/mingw-w64/i686-8.1.0-win32-dwarf-rt_v6-rev0/mingw32/bin/../lib/gcc/i686-w64-mingw32/8.1.0\libgcc.a(_chkstk_ms.o)
 .data          0x6e02f804        0x0 C:/Program Files (x86)/mingw-w64/i686-8.1.0-win32-dwarf-rt_v6-rev0/mingw32/bin/../lib/gcc/i686-w64-mingw32/8.1.0\libgcc.a(_ctors.o)
 .data          0x6e02f804        0x0 C:/Program Files (x86)/mingw-w64/i686-8.1.0-win32-dwarf-rt_v6-rev0/mingw32/bin/../lib/gcc/i686-w64-mingw32/8.1.0\libgcc.a(_udivdi3.o)
 .data          0x6e02f804        0x0 C:/Program Files (x86)/mingw-w64/i686-8.1.0-win32-dwarf-rt_v6-rev0/mingw32/bin/../lib/gcc/i686-w64-mingw32/8.1.0\libgcc.a(gthr-win32.o)
 .data          0x6e02f804        0x8 C:/Program Files (x86)/mingw-w64/i686-8.1.0-win32-dwarf-rt_v6-rev0/mingw32/bin/../lib/gcc/i686-w64-mingw32/8.1.0\libgcc_eh.a(unwind-dw2.o)
 .data          0x6e02f80c        0x8 C:/Program Files (x86)/mingw-w64/i686-8.1.0-win32-dwarf-rt_v6-rev0/mingw32/bin/../lib/gcc/i686-w64-mingw32/8.1.0\libgcc_eh.a(unwind-dw2-fde.o)
 .data          0x6e02f814        0x8 C:/Program Files (x86)/mingw-w64/i686-8.1.0-win32-dwarf-rt_v6-rev0/mingw32/bin/../lib/gcc/i686-w64-mingw32/8.1.0\libgcc_eh.a(emutls.o)
 .data          0x6e02f81c        0x0 C:/Program Files (x86)/mingw-w64/i686-8.1.0-win32-dwarf-rt_v6-rev0/mingw32/bin/../lib/gcc/i686-w64-mingw32/8.1.0/../../../../i686-w64-mingw32/lib/../lib\libmingwex.a(lib32_libmingwex_a-dllentry.o)
 .data          0x6e02f81c        0x0 C:/Program Files (x86)/mingw-w64/i686-8.1.0-win32-dwarf-rt_v6-rev0/mingw32/bin/../lib/gcc/i686-w64-mingw32/8.1.0/../../../../i686-w64-mingw32/lib/../lib\libmingwex.a(lib32_libmingwex_a-dllmain.o)
 .data          0x6e02f81c        0x0 C:/Program Files (x86)/mingw-w64/i686-8.1.0-win32-dwarf-rt_v6-rev0/mingw32/bin/../lib/gcc/i686-w64-mingw32/8.1.0/../../../../i686-w64-mingw32/lib/../lib\libmingwex.a(lib32_libmingwex_a-wassert.o)
 .data          0x6e02f81c        0x0 C:/Program Files (x86)/mingw-w64/i686-8.1.0-win32-dwarf-rt_v6-rev0/mingw32/bin/../lib/gcc/i686-w64-mingw32/8.1.0/../../../../i686-w64-mingw32/lib/../lib\libmingwex.a(lib32_libmingwex_a-mingw_vsnprintf.o)
 .data          0x6e02f81c        0x0 C:/Program Files (x86)/mingw-w64/i686-8.1.0-win32-dwarf-rt_v6-rev0/mingw32/bin/../lib/gcc/i686-w64-mingw32/8.1.0/../../../../i686-w64-mingw32/lib/../lib\libmingwex.a(lib32_libmingwex_a-mingw_vsprintf.o)
 .data          0x6e02f81c        0x0 C:/Program Files (x86)/mingw-w64/i686-8.1.0-win32-dwarf-rt_v6-rev0/mingw32/bin/../lib/gcc/i686-w64-mingw32/8.1.0/../../../../i686-w64-mingw32/lib/../lib\libmingwex.a(lib32_libmingwex_a-vsnprintf.o)
 .data          0x6e02f81c       0x18 C:/Program Files (x86)/mingw-w64/i686-8.1.0-win32-dwarf-rt_v6-rev0/mingw32/bin/../lib/gcc/i686-w64-mingw32/8.1.0/../../../../i686-w64-mingw32/lib/../lib\libmingwex.a(lib32_libmingwex_a-mingw_pformat.o)
 .data          0x6e02f834        0x0 C:/Program Files (x86)/mingw-w64/i686-8.1.0-win32-dwarf-rt_v6-rev0/mingw32/bin/../lib/gcc/i686-w64-mingw32/8.1.0/../../../../i686-w64-mingw32/lib/../lib\libmingwex.a(lib32_libmingwex_a-dmisc.o)
 .data          0x6e02f834        0x0 C:/Program Files (x86)/mingw-w64/i686-8.1.0-win32-dwarf-rt_v6-rev0/mingw32/bin/../lib/gcc/i686-w64-mingw32/8.1.0/../../../../i686-w64-mingw32/lib/../lib\libmingwex.a(lib32_libmingwex_a-gdtoa.o)
 .data          0x6e02f834        0x0 C:/Program Files (x86)/mingw-w64/i686-8.1.0-win32-dwarf-rt_v6-rev0/mingw32/bin/../lib/gcc/i686-w64-mingw32/8.1.0/../../../../i686-w64-mingw32/lib/../lib\libmingwex.a(lib32_libmingwex_a-gmisc.o)
 .data          0x6e02f834        0x4 C:/Program Files (x86)/mingw-w64/i686-8.1.0-win32-dwarf-rt_v6-rev0/mingw32/bin/../lib/gcc/i686-w64-mingw32/8.1.0/../../../../i686-w64-mingw32/lib/../lib\libmingwex.a(lib32_libmingwex_a-misc.o)
 .data          0x6e02f838        0x0 C:/Program Files (x86)/mingw-w64/i686-8.1.0-win32-dwarf-rt_v6-rev0/mingw32/bin/../lib/gcc/i686-w64-mingw32/8.1.0/../../../../i686-w64-mingw32/lib/../lib\libmingwex.a(lib32_libmingwex_a-mbrtowc.o)
 .data          0x6e02f838        0x0 C:/Program Files (x86)/mingw-w64/i686-8.1.0-win32-dwarf-rt_v6-rev0/mingw32/bin/../lib/gcc/i686-w64-mingw32/8.1.0/../../../../i686-w64-mingw32/lib/../lib\libmingwex.a(lib32_libmingwex_a-strnlen.o)
 .data          0x6e02f838        0x0 C:/Program Files (x86)/mingw-w64/i686-8.1.0-win32-dwarf-rt_v6-rev0/mingw32/bin/../lib/gcc/i686-w64-mingw32/8.1.0/../../../../i686-w64-mingw32/lib/../lib\libmingwex.a(lib32_libmingwex_a-wcrtomb.o)
 .data          0x6e02f838        0x0 C:/Program Files (x86)/mingw-w64/i686-8.1.0-win32-dwarf-rt_v6-rev0/mingw32/bin/../lib/gcc/i686-w64-mingw32/8.1.0/../../../../i686-w64-mingw32/lib/../lib\libmingwex.a(lib32_libmingwex_a-wcsnlen.o)
 .data          0x6e02f838        0x0 C:/Program Files (x86)/mingw-w64/i686-8.1.0-win32-dwarf-rt_v6-rev0/mingw32/bin/../lib/gcc/i686-w64-mingw32/8.1.0/../../../../i686-w64-mingw32/lib/../lib\libmsvcr100.a(dwnfs01726.o)
 .data          0x6e02f838        0x0 C:/Program Files (x86)/mingw-w64/i686-8.1.0-win32-dwarf-rt_v6-rev0/mingw32/bin/../lib/gcc/i686-w64-mingw32/8.1.0/../../../../i686-w64-mingw32/lib/../lib\libmsvcr100.a(dwnfs01722.o)
 .data          0x6e02f838        0x0 C:/Program Files (x86)/mingw-w64/i686-8.1.0-win32-dwarf-rt_v6-rev0/mingw32/bin/../lib/gcc/i686-w64-mingw32/8.1.0/../../../../i686-w64-mingw32/lib/../lib\libmsvcr100.a(dwnfs01704.o)
 .data          0x6e02f838        0x0 C:/Program Files (x86)/mingw-w64/i686-8.1.0-win32-dwarf-rt_v6-rev0/mingw32/bin/../lib/gcc/i686-w64-mingw32/8.1.0/../../../../i686-w64-mingw32/lib/../lib\libmsvcr100.a(dwnfs01699.o)
 .data          0x6e02f838        0x0 C:/Program Files (x86)/mingw-w64/i686-8.1.0-win32-dwarf-rt_v6-rev0/mingw32/bin/../lib/gcc/i686-w64-mingw32/8.1.0/../../../../i686-w64-mingw32/lib/../lib\libmsvcr100.a(dwnfs01681.o)
 .data          0x6e02f838        0x0 C:/Program Files (x86)/mingw-w64/i686-8.1.0-win32-dwarf-rt_v6-rev0/mingw32/bin/../lib/gcc/i686-w64-mingw32/8.1.0/../../../../i686-w64-mingw32/lib/../lib\libmsvcr100.a(dwnfs01675.o)
 .data          0x6e02f838        0x0 C:/Program Files (x86)/mingw-w64/i686-8.1.0-win32-dwarf-rt_v6-rev0/mingw32/bin/../lib/gcc/i686-w64-mingw32/8.1.0/../../../../i686-w64-mingw32/lib/../lib\libmsvcr100.a(dwnfs01674.o)
 .data          0x6e02f838        0x0 C:/Program Files (x86)/mingw-w64/i686-8.1.0-win32-dwarf-rt_v6-rev0/mingw32/bin/../lib/gcc/i686-w64-mingw32/8.1.0/../../../../i686-w64-mingw32/lib/../lib\libmsvcr100.a(dwnfs01671.o)
 .data          0x6e02f838        0x0 C:/Program Files (x86)/mingw-w64/i686-8.1.0-win32-dwarf-rt_v6-rev0/mingw32/bin/../lib/gcc/i686-w64-mingw32/8.1.0/../../../../i686-w64-mingw32/lib/../lib\libmsvcr100.a(dwnfs01668.o)
 .data          0x6e02f838        0x0 C:/Program Files (x86)/mingw-w64/i686-8.1.0-win32-dwarf-rt_v6-rev0/mingw32/bin/../lib/gcc/i686-w64-mingw32/8.1.0/../../../../i686-w64-mingw32/lib/../lib\libmsvcr100.a(dwnfs01665.o)
 .data          0x6e02f838        0x0 C:/Program Files (x86)/mingw-w64/i686-8.1.0-win32-dwarf-rt_v6-rev0/mingw32/bin/../lib/gcc/i686-w64-mingw32/8.1.0/../../../../i686-w64-mingw32/lib/../lib\libmsvcr100.a(dwnfs01663.o)
 .data          0x6e02f838        0x0 C:/Program Files (x86)/mingw-w64/i686-8.1.0-win32-dwarf-rt_v6-rev0/mingw32/bin/../lib/gcc/i686-w64-mingw32/8.1.0/../../../../i686-w64-mingw32/lib/../lib\libmsvcr100.a(dwnfs01654.o)
 .data          0x6e02f838        0x0 C:/Program Files (x86)/mingw-w64/i686-8.1.0-win32-dwarf-rt_v6-rev0/mingw32/bin/../lib/gcc/i686-w64-mingw32/8.1.0/../../../../i686-w64-mingw32/lib/../lib\libmsvcr100.a(dwnfs01645.o)
 .data          0x6e02f838        0x0 C:/Program Files (x86)/mingw-w64/i686-8.1.0-win32-dwarf-rt_v6-rev0/mingw32/bin/../lib/gcc/i686-w64-mingw32/8.1.0/../../../../i686-w64-mingw32/lib/../lib\libmsvcr100.a(dwnfs01642.o)
 .data          0x6e02f838        0x0 C:/Program Files (x86)/mingw-w64/i686-8.1.0-win32-dwarf-rt_v6-rev0/mingw32/bin/../lib/gcc/i686-w64-mingw32/8.1.0/../../../../i686-w64-mingw32/lib/../lib\libmsvcr100.a(dwnfs01639.o)
 .data          0x6e02f838        0x0 C:/Program Files (x86)/mingw-w64/i686-8.1.0-win32-dwarf-rt_v6-rev0/mingw32/bin/../lib/gcc/i686-w64-mingw32/8.1.0/../../../../i686-w64-mingw32/lib/../lib\libmsvcr100.a(dwnfs01626.o)
 .data          0x6e02f838        0x0 C:/Program Files (x86)/mingw-w64/i686-8.1.0-win32-dwarf-rt_v6-rev0/mingw32/bin/../lib/gcc/i686-w64-mingw32/8.1.0/../../../../i686-w64-mingw32/lib/../lib\libmsvcr100.a(dwnfs01622.o)
 .data          0x6e02f838        0x0 C:/Program Files (x86)/mingw-w64/i686-8.1.0-win32-dwarf-rt_v6-rev0/mingw32/bin/../lib/gcc/i686-w64-mingw32/8.1.0/../../../../i686-w64-mingw32/lib/../lib\libmsvcr100.a(dwnfs01621.o)
 .data          0x6e02f838        0x0 C:/Program Files (x86)/mingw-w64/i686-8.1.0-win32-dwarf-rt_v6-rev0/mingw32/bin/../lib/gcc/i686-w64-mingw32/8.1.0/../../../../i686-w64-mingw32/lib/../lib\libmsvcr100.a(dwnfs01611.o)
 .data          0x6e02f838        0x0 C:/Program Files (x86)/mingw-w64/i686-8.1.0-win32-dwarf-rt_v6-rev0/mingw32/bin/../lib/gcc/i686-w64-mingw32/8.1.0/../../../../i686-w64-mingw32/lib/../lib\libmsvcr100.a(dwnfs01607.o)
 .data          0x6e02f838        0x0 C:/Program Files (x86)/mingw-w64/i686-8.1.0-win32-dwarf-rt_v6-rev0/mingw32/bin/../lib/gcc/i686-w64-mingw32/8.1.0/../../../../i686-w64-mingw32/lib/../lib\libmsvcr100.a(dwnfs01565.o)
 .data          0x6e02f838        0x0 C:/Program Files (x86)/mingw-w64/i686-8.1.0-win32-dwarf-rt_v6-rev0/mingw32/bin/../lib/gcc/i686-w64-mingw32/8.1.0/../../../../i686-w64-mingw32/lib/../lib\libmsvcr100.a(dwnfs01563.o)
 .data          0x6e02f838        0x0 C:/Program Files (x86)/mingw-w64/i686-8.1.0-win32-dwarf-rt_v6-rev0/mingw32/bin/../lib/gcc/i686-w64-mingw32/8.1.0/../../../../i686-w64-mingw32/lib/../lib\libmsvcr100.a(dwnfs01560.o)
 .data          0x6e02f838        0x0 C:/Program Files (x86)/mingw-w64/i686-8.1.0-win32-dwarf-rt_v6-rev0/mingw32/bin/../lib/gcc/i686-w64-mingw32/8.1.0/../../../../i686-w64-mingw32/lib/../lib\libmsvcr100.a(dwnfs01558.o)
 .data          0x6e02f838        0x0 C:/Program Files (x86)/mingw-w64/i686-8.1.0-win32-dwarf-rt_v6-rev0/mingw32/bin/../lib/gcc/i686-w64-mingw32/8.1.0/../../../../i686-w64-mingw32/lib/../lib\libmsvcr100.a(dwnfs01553.o)
 .data          0x6e02f838        0x0 C:/Program Files (x86)/mingw-w64/i686-8.1.0-win32-dwarf-rt_v6-rev0/mingw32/bin/../lib/gcc/i686-w64-mingw32/8.1.0/../../../../i686-w64-mingw32/lib/../lib\libmsvcr100.a(dwnfs01551.o)
 .data          0x6e02f838        0x0 C:/Program Files (x86)/mingw-w64/i686-8.1.0-win32-dwarf-rt_v6-rev0/mingw32/bin/../lib/gcc/i686-w64-mingw32/8.1.0/../../../../i686-w64-mingw32/lib/../lib\libmsvcr100.a(dwnfs01548.o)
 .data          0x6e02f838        0x0 C:/Program Files (x86)/mingw-w64/i686-8.1.0-win32-dwarf-rt_v6-rev0/mingw32/bin/../lib/gcc/i686-w64-mingw32/8.1.0/../../../../i686-w64-mingw32/lib/../lib\libmsvcr100.a(dwnfs01547.o)
 .data          0x6e02f838        0x0 C:/Program Files (x86)/mingw-w64/i686-8.1.0-win32-dwarf-rt_v6-rev0/mingw32/bin/../lib/gcc/i686-w64-mingw32/8.1.0/../../../../i686-w64-mingw32/lib/../lib\libmsvcr100.a(dwnfs01545.o)
 .data          0x6e02f838        0x0 C:/Program Files (x86)/mingw-w64/i686-8.1.0-win32-dwarf-rt_v6-rev0/mingw32/bin/../lib/gcc/i686-w64-mingw32/8.1.0/../../../../i686-w64-mingw32/lib/../lib\libmsvcr100.a(dwnfs01543.o)
 .data          0x6e02f838        0x0 C:/Program Files (x86)/mingw-w64/i686-8.1.0-win32-dwarf-rt_v6-rev0/mingw32/bin/../lib/gcc/i686-w64-mingw32/8.1.0/../../../../i686-w64-mingw32/lib/../lib\libmsvcr100.a(dwnfs01532.o)
 .data          0x6e02f838        0x0 C:/Program Files (x86)/mingw-w64/i686-8.1.0-win32-dwarf-rt_v6-rev0/mingw32/bin/../lib/gcc/i686-w64-mingw32/8.1.0/../../../../i686-w64-mingw32/lib/../lib\libmsvcr100.a(dwnfs01521.o)
 .data          0x6e02f838        0x0 C:/Program Files (x86)/mingw-w64/i686-8.1.0-win32-dwarf-rt_v6-rev0/mingw32/bin/../lib/gcc/i686-w64-mingw32/8.1.0/../../../../i686-w64-mingw32/lib/../lib\libmsvcr100.a(dwnfs01516.o)
 .data          0x6e02f838        0x0 C:/Program Files (x86)/mingw-w64/i686-8.1.0-win32-dwarf-rt_v6-rev0/mingw32/bin/../lib/gcc/i686-w64-mingw32/8.1.0/../../../../i686-w64-mingw32/lib/../lib\libmsvcr100.a(dwnfs01503.o)
 .data          0x6e02f838        0x0 C:/Program Files (x86)/mingw-w64/i686-8.1.0-win32-dwarf-rt_v6-rev0/mingw32/bin/../lib/gcc/i686-w64-mingw32/8.1.0/../../../../i686-w64-mingw32/lib/../lib\libmsvcr100.a(dwnfs01456.o)
 .data          0x6e02f838        0x0 C:/Program Files (x86)/mingw-w64/i686-8.1.0-win32-dwarf-rt_v6-rev0/mingw32/bin/../lib/gcc/i686-w64-mingw32/8.1.0/../../../../i686-w64-mingw32/lib/../lib\libmsvcr100.a(dwnfs01426.o)
 .data          0x6e02f838        0x0 C:/Program Files (x86)/mingw-w64/i686-8.1.0-win32-dwarf-rt_v6-rev0/mingw32/bin/../lib/gcc/i686-w64-mingw32/8.1.0/../../../../i686-w64-mingw32/lib/../lib\libmsvcr100.a(dwnfs01314.o)
 .data          0x6e02f838        0x0 C:/Program Files (x86)/mingw-w64/i686-8.1.0-win32-dwarf-rt_v6-rev0/mingw32/bin/../lib/gcc/i686-w64-mingw32/8.1.0/../../../../i686-w64-mingw32/lib/../lib\libmsvcr100.a(dwnfs01179.o)
 .data          0x6e02f838        0x0 C:/Program Files (x86)/mingw-w64/i686-8.1.0-win32-dwarf-rt_v6-rev0/mingw32/bin/../lib/gcc/i686-w64-mingw32/8.1.0/../../../../i686-w64-mingw32/lib/../lib\libmsvcr100.a(dwnfs01126.o)
 .data          0x6e02f838        0x0 C:/Program Files (x86)/mingw-w64/i686-8.1.0-win32-dwarf-rt_v6-rev0/mingw32/bin/../lib/gcc/i686-w64-mingw32/8.1.0/../../../../i686-w64-mingw32/lib/../lib\libmsvcr100.a(dwnfs00744.o)
 .data          0x6e02f838        0x0 C:/Program Files (x86)/mingw-w64/i686-8.1.0-win32-dwarf-rt_v6-rev0/mingw32/bin/../lib/gcc/i686-w64-mingw32/8.1.0/../../../../i686-w64-mingw32/lib/../lib\libmsvcr100.a(dwnfs00735.o)
 .data          0x6e02f838        0x0 C:/Program Files (x86)/mingw-w64/i686-8.1.0-win32-dwarf-rt_v6-rev0/mingw32/bin/../lib/gcc/i686-w64-mingw32/8.1.0/../../../../i686-w64-mingw32/lib/../lib\libmsvcr100.a(dwnfs00576.o)
 .data          0x6e02f838        0x0 C:/Program Files (x86)/mingw-w64/i686-8.1.0-win32-dwarf-rt_v6-rev0/mingw32/bin/../lib/gcc/i686-w64-mingw32/8.1.0/../../../../i686-w64-mingw32/lib/../lib\libmsvcr100.a(dwnfs00559.o)
 .data          0x6e02f838        0x0 C:/Program Files (x86)/mingw-w64/i686-8.1.0-win32-dwarf-rt_v6-rev0/mingw32/bin/../lib/gcc/i686-w64-mingw32/8.1.0/../../../../i686-w64-mingw32/lib/../lib\libmsvcr100.a(dwnfs00457.o)
 .data          0x6e02f838        0x0 C:/Program Files (x86)/mingw-w64/i686-8.1.0-win32-dwarf-rt_v6-rev0/mingw32/bin/../lib/gcc/i686-w64-mingw32/8.1.0/../../../../i686-w64-mingw32/lib/../lib\libmsvcr100.a(dwnfs00332.o)
 .data          0x6e02f838        0x0 C:/Program Files (x86)/mingw-w64/i686-8.1.0-win32-dwarf-rt_v6-rev0/mingw32/bin/../lib/gcc/i686-w64-mingw32/8.1.0/../../../../i686-w64-mingw32/lib/../lib\libmsvcr100.a(dwnfs00329.o)
 .data          0x6e02f838        0xc C:/Program Files (x86)/mingw-w64/i686-8.1.0-win32-dwarf-rt_v6-rev0/mingw32/bin/../lib/gcc/i686-w64-mingw32/8.1.0/../../../../i686-w64-mingw32/lib/../lib\libmsvcr100.a(lib32_libmsvcr100_a-onexit_table.o)
                0x6e02f838                _imp___execute_onexit_table
                0x6e02f83c                _imp___register_onexit_function
                0x6e02f840                _imp___initialize_onexit_table
 .data          0x6e02f844        0x4 C:/Program Files (x86)/mingw-w64/i686-8.1.0-win32-dwarf-rt_v6-rev0/mingw32/bin/../lib/gcc/i686-w64-mingw32/8.1.0/../../../../i686-w64-mingw32/lib/../lib\libmsvcr100.a(lib32_libmsvcr100_a-acrt_iob_func.o)
                0x6e02f844                _imp____acrt_iob_func
 .data          0x6e02f848        0x0 C:/Program Files (x86)/mingw-w64/i686-8.1.0-win32-dwarf-rt_v6-rev0/mingw32/bin/../lib/gcc/i686-w64-mingw32/8.1.0/../../../../i686-w64-mingw32/lib/../lib\libmsvcr100.a(dwnfh.o)
 .data          0x6e02f848        0x0 C:/Program Files (x86)/mingw-w64/i686-8.1.0-win32-dwarf-rt_v6-rev0/mingw32/bin/../lib/gcc/i686-w64-mingw32/8.1.0/../../../../i686-w64-mingw32/lib/../lib\libmsvcr100.a(dwnfs01276.o)
 .data          0x6e02f848        0x0 C:/Program Files (x86)/mingw-w64/i686-8.1.0-win32-dwarf-rt_v6-rev0/mingw32/bin/../lib/gcc/i686-w64-mingw32/8.1.0/../../../../i686-w64-mingw32/lib/../lib\libmsvcr100.a(dwnfs00858.o)
 .data          0x6e02f848        0x0 C:/Program Files (x86)/mingw-w64/i686-8.1.0-win32-dwarf-rt_v6-rev0/mingw32/bin/../lib/gcc/i686-w64-mingw32/8.1.0/../../../../i686-w64-mingw32/lib/../lib\libmsvcr100.a(dwnft.o)
 .data          0x6e02f848        0x0 C:/Program Files (x86)/mingw-w64/i686-8.1.0-win32-dwarf-rt_v6-rev0/mingw32/bin/../lib/gcc/i686-w64-mingw32/8.1.0/../../../../i686-w64-mingw32/lib/../lib\libuser32.a(dmces00595.o)
 .data          0x6e02f848        0x0 C:/Program Files (x86)/mingw-w64/i686-8.1.0-win32-dwarf-rt_v6-rev0/mingw32/bin/../lib/gcc/i686-w64-mingw32/8.1.0/../../../../i686-w64-mingw32/lib/../lib\libuser32.a(dmceh.o)
 .data          0x6e02f848        0x0 C:/Program Files (x86)/mingw-w64/i686-8.1.0-win32-dwarf-rt_v6-rev0/mingw32/bin/../lib/gcc/i686-w64-mingw32/8.1.0/../../../../i686-w64-mingw32/lib/../lib\libuser32.a(dmcet.o)
 .data          0x6e02f848        0x0 C:/Program Files (x86)/mingw-w64/i686-8.1.0-win32-dwarf-rt_v6-rev0/mingw32/bin/../lib/gcc/i686-w64-mingw32/8.1.0/../../../../i686-w64-mingw32/lib/../lib\libkernel32.a(dgzcs01279.o)
 .data          0x6e02f848        0x0 C:/Program Files (x86)/mingw-w64/i686-8.1.0-win32-dwarf-rt_v6-rev0/mingw32/bin/../lib/gcc/i686-w64-mingw32/8.1.0/../../../../i686-w64-mingw32/lib/../lib\libkernel32.a(dgzcs01255.o)
 .data          0x6e02f848        0x0 C:/Program Files (x86)/mingw-w64/i686-8.1.0-win32-dwarf-rt_v6-rev0/mingw32/bin/../lib/gcc/i686-w64-mingw32/8.1.0/../../../../i686-w64-mingw32/lib/../lib\libkernel32.a(dgzcs01246.o)
 .data          0x6e02f848        0x0 C:/Program Files (x86)/mingw-w64/i686-8.1.0-win32-dwarf-rt_v6-rev0/mingw32/bin/../lib/gcc/i686-w64-mingw32/8.1.0/../../../../i686-w64-mingw32/lib/../lib\libkernel32.a(dgzcs01210.o)
 .data          0x6e02f848        0x0 C:/Program Files (x86)/mingw-w64/i686-8.1.0-win32-dwarf-rt_v6-rev0/mingw32/bin/../lib/gcc/i686-w64-mingw32/8.1.0/../../../../i686-w64-mingw32/lib/../lib\libkernel32.a(dgzcs01198.o)
 .data          0x6e02f848        0x0 C:/Program Files (x86)/mingw-w64/i686-8.1.0-win32-dwarf-rt_v6-rev0/mingw32/bin/../lib/gcc/i686-w64-mingw32/8.1.0/../../../../i686-w64-mingw32/lib/../lib\libkernel32.a(dgzcs01197.o)
 .data          0x6e02f848        0x0 C:/Program Files (x86)/mingw-w64/i686-8.1.0-win32-dwarf-rt_v6-rev0/mingw32/bin/../lib/gcc/i686-w64-mingw32/8.1.0/../../../../i686-w64-mingw32/lib/../lib\libkernel32.a(dgzcs01196.o)
 .data          0x6e02f848        0x0 C:/Program Files (x86)/mingw-w64/i686-8.1.0-win32-dwarf-rt_v6-rev0/mingw32/bin/../lib/gcc/i686-w64-mingw32/8.1.0/../../../../i686-w64-mingw32/lib/../lib\libkernel32.a(dgzcs01195.o)
 .data          0x6e02f848        0x0 C:/Program Files (x86)/mingw-w64/i686-8.1.0-win32-dwarf-rt_v6-rev0/mingw32/bin/../lib/gcc/i686-w64-mingw32/8.1.0/../../../../i686-w64-mingw32/lib/../lib\libkernel32.a(dgzcs01190.o)
 .data          0x6e02f848        0x0 C:/Program Files (x86)/mingw-w64/i686-8.1.0-win32-dwarf-rt_v6-rev0/mingw32/bin/../lib/gcc/i686-w64-mingw32/8.1.0/../../../../i686-w64-mingw32/lib/../lib\libkernel32.a(dgzcs01163.o)
 .data          0x6e02f848        0x0 C:/Program Files (x86)/mingw-w64/i686-8.1.0-win32-dwarf-rt_v6-rev0/mingw32/bin/../lib/gcc/i686-w64-mingw32/8.1.0/../../../../i686-w64-mingw32/lib/../lib\libkernel32.a(dgzcs01114.o)
 .data          0x6e02f848        0x0 C:/Program Files (x86)/mingw-w64/i686-8.1.0-win32-dwarf-rt_v6-rev0/mingw32/bin/../lib/gcc/i686-w64-mingw32/8.1.0/../../../../i686-w64-mingw32/lib/../lib\libkernel32.a(dgzcs00997.o)
 .data          0x6e02f848        0x0 C:/Program Files (x86)/mingw-w64/i686-8.1.0-win32-dwarf-rt_v6-rev0/mingw32/bin/../lib/gcc/i686-w64-mingw32/8.1.0/../../../../i686-w64-mingw32/lib/../lib\libkernel32.a(dgzcs00949.o)
 .data          0x6e02f848        0x0 C:/Program Files (x86)/mingw-w64/i686-8.1.0-win32-dwarf-rt_v6-rev0/mingw32/bin/../lib/gcc/i686-w64-mingw32/8.1.0/../../../../i686-w64-mingw32/lib/../lib\libkernel32.a(dgzcs00884.o)
 .data          0x6e02f848        0x0 C:/Program Files (x86)/mingw-w64/i686-8.1.0-win32-dwarf-rt_v6-rev0/mingw32/bin/../lib/gcc/i686-w64-mingw32/8.1.0/../../../../i686-w64-mingw32/lib/../lib\libkernel32.a(dgzcs00836.o)
 .data          0x6e02f848        0x0 C:/Program Files (x86)/mingw-w64/i686-8.1.0-win32-dwarf-rt_v6-rev0/mingw32/bin/../lib/gcc/i686-w64-mingw32/8.1.0/../../../../i686-w64-mingw32/lib/../lib\libkernel32.a(dgzcs00778.o)
 .data          0x6e02f848        0x0 C:/Program Files (x86)/mingw-w64/i686-8.1.0-win32-dwarf-rt_v6-rev0/mingw32/bin/../lib/gcc/i686-w64-mingw32/8.1.0/../../../../i686-w64-mingw32/lib/../lib\libkernel32.a(dgzcs00750.o)
 .data          0x6e02f848        0x0 C:/Program Files (x86)/mingw-w64/i686-8.1.0-win32-dwarf-rt_v6-rev0/mingw32/bin/../lib/gcc/i686-w64-mingw32/8.1.0/../../../../i686-w64-mingw32/lib/../lib\libkernel32.a(dgzcs00666.o)
 .data          0x6e02f848        0x0 C:/Program Files (x86)/mingw-w64/i686-8.1.0-win32-dwarf-rt_v6-rev0/mingw32/bin/../lib/gcc/i686-w64-mingw32/8.1.0/../../../../i686-w64-mingw32/lib/../lib\libkernel32.a(dgzcs00638.o)
 .data          0x6e02f848        0x0 C:/Program Files (x86)/mingw-w64/i686-8.1.0-win32-dwarf-rt_v6-rev0/mingw32/bin/../lib/gcc/i686-w64-mingw32/8.1.0/../../../../i686-w64-mingw32/lib/../lib\libkernel32.a(dgzcs00518.o)
 .data          0x6e02f848        0x0 C:/Program Files (x86)/mingw-w64/i686-8.1.0-win32-dwarf-rt_v6-rev0/mingw32/bin/../lib/gcc/i686-w64-mingw32/8.1.0/../../../../i686-w64-mingw32/lib/../lib\libkernel32.a(dgzcs00460.o)
 .data          0x6e02f848        0x0 C:/Program Files (x86)/mingw-w64/i686-8.1.0-win32-dwarf-rt_v6-rev0/mingw32/bin/../lib/gcc/i686-w64-mingw32/8.1.0/../../../../i686-w64-mingw32/lib/../lib\libkernel32.a(dgzcs00456.o)
 .data          0x6e02f848        0x0 C:/Program Files (x86)/mingw-w64/i686-8.1.0-win32-dwarf-rt_v6-rev0/mingw32/bin/../lib/gcc/i686-w64-mingw32/8.1.0/../../../../i686-w64-mingw32/lib/../lib\libkernel32.a(dgzcs00455.o)
 .data          0x6e02f848        0x0 C:/Program Files (x86)/mingw-w64/i686-8.1.0-win32-dwarf-rt_v6-rev0/mingw32/bin/../lib/gcc/i686-w64-mingw32/8.1.0/../../../../i686-w64-mingw32/lib/../lib\libkernel32.a(dgzcs00242.o)
 .data          0x6e02f848        0x0 C:/Program Files (x86)/mingw-w64/i686-8.1.0-win32-dwarf-rt_v6-rev0/mingw32/bin/../lib/gcc/i686-w64-mingw32/8.1.0/../../../../i686-w64-mingw32/lib/../lib\libkernel32.a(dgzcs00214.o)
 .data          0x6e02f848        0x0 C:/Program Files (x86)/mingw-w64/i686-8.1.0-win32-dwarf-rt_v6-rev0/mingw32/bin/../lib/gcc/i686-w64-mingw32/8.1.0/../../../../i686-w64-mingw32/lib/../lib\libkernel32.a(dgzcs00178.o)
 .data          0x6e02f848        0x0 C:/Program Files (x86)/mingw-w64/i686-8.1.0-win32-dwarf-rt_v6-rev0/mingw32/bin/../lib/gcc/i686-w64-mingw32/8.1.0/../../../../i686-w64-mingw32/lib/../lib\libkernel32.a(dgzcs00083.o)
 .data          0x6e02f848        0x0 C:/Program Files (x86)/mingw-w64/i686-8.1.0-win32-dwarf-rt_v6-rev0/mingw32/bin/../lib/gcc/i686-w64-mingw32/8.1.0/../../../../i686-w64-mingw32/lib/../lib\libmingw32.a(lib32_libmingw32_a-tlsmthread.o)
 .data          0x6e02f848        0x0 C:/Program Files (x86)/mingw-w64/i686-8.1.0-win32-dwarf-rt_v6-rev0/mingw32/bin/../lib/gcc/i686-w64-mingw32/8.1.0\libgcc.a(_umoddi3.o)
 .data          0x6e02f848        0x0 C:/Program Files (x86)/mingw-w64/i686-8.1.0-win32-dwarf-rt_v6-rev0/mingw32/bin/../lib/gcc/i686-w64-mingw32/8.1.0/crtend.o
 *(.data2)
 *(SORT_BY_NAME(.data$*))
 .data$_ZN10__cxxabiv119__terminate_handlerE
                0x6e02f848        0x4 C:/Program Files (x86)/mingw-w64/i686-8.1.0-win32-dwarf-rt_v6-rev0/mingw32/bin/../lib/gcc/i686-w64-mingw32/8.1.0\libstdc++.a(eh_term_handler.o)
                0x6e02f848                __cxxabiv1::__terminate_handler
 .data$_ZN10__cxxabiv120__unexpected_handlerE
                0x6e02f84c        0x4 C:/Program Files (x86)/mingw-w64/i686-8.1.0-win32-dwarf-rt_v6-rev0/mingw32/bin/../lib/gcc/i686-w64-mingw32/8.1.0\libstdc++.a(eh_unex_handler.o)
                0x6e02f84c                __cxxabiv1::__unexpected_handler
 .data$_ZN12_GLOBAL__N_113__new_handlerE
                0x6e02f850        0x4 C:/Program Files (x86)/mingw-w64/i686-8.1.0-win32-dwarf-rt_v6-rev0/mingw32/bin/../lib/gcc/i686-w64-mingw32/8.1.0\libstdc++.a(new_handler.o)
 .data$_ZN12_GLOBAL__N_114emergency_poolE
                0x6e02f854       0x14 C:/Program Files (x86)/mingw-w64/i686-8.1.0-win32-dwarf-rt_v6-rev0/mingw32/bin/../lib/gcc/i686-w64-mingw32/8.1.0\libstdc++.a(eh_alloc.o)
 .data$_ZZN9__gnu_cxx27__verbose_terminate_handlerEvE11terminating
                0x6e02f868        0x4 C:/Program Files (x86)/mingw-w64/i686-8.1.0-win32-dwarf-rt_v6-rev0/mingw32/bin/../lib/gcc/i686-w64-mingw32/8.1.0\libstdc++.a(vterminate.o)
 .data$__emutls_v._ZZN12_GLOBAL__N_110get_globalEvE6global
                0x6e02f86c       0x10 C:/Program Files (x86)/mingw-w64/i686-8.1.0-win32-dwarf-rt_v6-rev0/mingw32/bin/../lib/gcc/i686-w64-mingw32/8.1.0\libstdc++.a(eh_globals.o)
 .data$__security_cookie
                0x6e02f87c        0x4 C:/Program Files (x86)/mingw-w64/i686-8.1.0-win32-dwarf-rt_v6-rev0/mingw32/bin/../lib/gcc/i686-w64-mingw32/8.1.0/../../../../i686-w64-mingw32/lib/../lib\libmingw32.a(lib32_libmingw32_a-gs_support.o)
                0x6e02f87c                __security_cookie
 .data$__security_cookie_complement
                0x6e02f880        0x4 C:/Program Files (x86)/mingw-w64/i686-8.1.0-win32-dwarf-rt_v6-rev0/mingw32/bin/../lib/gcc/i686-w64-mingw32/8.1.0/../../../../i686-w64-mingw32/lib/../lib\libmingw32.a(lib32_libmingw32_a-gs_support.o)
                0x6e02f880                __security_cookie_complement
 *(.jcr)
                0x6e02f884                __data_end__ = .
 *(.data_cygwin_nocopy)

.rdata          0x6e030000     0x5400
 *(.rdata)
 .rdata         0x6e030000       0x44 C:/Program Files (x86)/mingw-w64/i686-8.1.0-win32-dwarf-rt_v6-rev0/mingw32/bin/../lib/gcc/i686-w64-mingw32/8.1.0/crtbegin.o
 .rdata         0x6e030044       0x60 rsa_verify.o
 *fill*         0x6e0300a4       0x1c 
 .rdata         0x6e0300c0       0xe0 rc5_32.o
 .rdata         0x6e0301a0       0x50 pehlp.o
 .rdata         0x6e0301f0       0xa0 checksumengine.o
 .rdata         0x6e030290        0x8 symbollist.includer.o
 *fill*         0x6e030298        0x8 
 .rdata         0x6e0302a0      0x3a0 main.o
 .rdata         0x6e030640       0x38 elfhlp.o
 .rdata         0x6e030678       0x2c basic.o
 .rdata         0x6e0306a4      0x144 .\libtomcrypt.a(base64_decode.o)
 .rdata         0x6e0307e8       0x30 .\libtomcrypt.a(crypt_argchk.o)
 .rdata         0x6e030818      0x138 .\libtomcrypt.a(ltm_desc.o)
                0x6e030874                ltm_desc
 .rdata         0x6e030950       0x48 .\libtomcrypt.a(rsa_exptmod.o)
 .rdata         0x6e030998       0x28 .\libtomcrypt.a(rsa_free.o)
 .rdata         0x6e0309c0       0x40 .\libtomcrypt.a(rsa_import.o)
 .rdata         0x6e030a00       0x38 .\libtomcrypt.a(rsa_make_key.o)
 .rdata         0x6e030a38      0x1e8 .\libtomcrypt.a(sha256.o)
                0x6e030b48                sha224_desc
                0x6e030bb8                sha256_desc
 .rdata         0x6e030c20       0x24 .\libtomcrypt.a(zeromem.o)
 .rdata         0x6e030c44       0x40 .\libtomcrypt.a(bn_mp_cnt_lsb.o)
 .rdata         0x6e030c84      0x400 .\libtomcrypt.a(bn_prime_tab.o)
                0x6e030c84                ltm_prime_tab
 .rdata         0x6e031084       0x84 .\libtomcrypt.a(der_decode_sequence_ex.o)
 .rdata         0x6e031108       0x3c .\libtomcrypt.a(der_decode_sequence_multi.o)
 .rdata         0x6e031144       0x4c .\libtomcrypt.a(der_decode_short_integer.o)
 .rdata         0x6e031190       0x5c .\libtomcrypt.a(der_decode_utctime.o)
 .rdata         0x6e0311ec       0x50 .\libtomcrypt.a(der_decode_utf8_string.o)
 .rdata         0x6e03123c       0x38 .\libtomcrypt.a(der_length_bit_string.o)
 .rdata         0x6e031274       0x38 .\libtomcrypt.a(der_length_boolean.o)
 .rdata         0x6e0312ac      0x378 .\libtomcrypt.a(der_length_ia5_string.o)
 .rdata         0x6e031624       0x44 .\libtomcrypt.a(der_length_integer.o)
 .rdata         0x6e031668       0x5c .\libtomcrypt.a(der_length_object_identifier.o)
 .rdata         0x6e0316c4       0x3c .\libtomcrypt.a(der_length_octet_string.o)
 .rdata         0x6e031700      0x2ac .\libtomcrypt.a(der_length_printable_string.o)
 .rdata         0x6e0319ac       0x84 .\libtomcrypt.a(der_length_sequence.o)
 .rdata         0x6e031a30       0x44 .\libtomcrypt.a(der_length_short_integer.o)
 .rdata         0x6e031a74       0x48 .\libtomcrypt.a(der_length_utctime.o)
 .rdata         0x6e031abc       0x44 .\libtomcrypt.a(der_length_utf8_string.o)
 .rdata         0x6e031b00       0x1c .\libtomcrypt.a(rand_prime.o)
 .rdata         0x6e031b1c       0x44 .\libtomcrypt.a(bn_mp_radix_smap.o)
 .rdata         0x6e031b60       0x50 .\libtomcrypt.a(der_decode_bit_string.o)
 .rdata         0x6e031bb0       0x40 .\libtomcrypt.a(der_decode_boolean.o)
 .rdata         0x6e031bf0       0x88 .\libtomcrypt.a(der_decode_choice.o)
 .rdata         0x6e031c78       0x50 .\libtomcrypt.a(der_decode_ia5_string.o)
 .rdata         0x6e031cc8       0x40 .\libtomcrypt.a(der_decode_integer.o)
 .rdata         0x6e031d08       0x68 .\libtomcrypt.a(der_decode_object_identifier.o)
 .rdata         0x6e031d70       0x54 .\libtomcrypt.a(der_decode_octet_string.o)
 .rdata         0x6e031dc4       0x64 .\libtomcrypt.a(der_decode_printable_string.o)
 .rdata         0x6e031e28       0x4c C:/Program Files (x86)/mingw-w64/i686-8.1.0-win32-dwarf-rt_v6-rev0/mingw32/bin/../lib/gcc/i686-w64-mingw32/8.1.0\libstdc++.a(eh_alloc.o)
 .rdata         0x6e031e74       0x24 C:/Program Files (x86)/mingw-w64/i686-8.1.0-win32-dwarf-rt_v6-rev0/mingw32/bin/../lib/gcc/i686-w64-mingw32/8.1.0\libstdc++.a(eh_exception.o)
 .rdata         0x6e031e98       0x34 C:/Program Files (x86)/mingw-w64/i686-8.1.0-win32-dwarf-rt_v6-rev0/mingw32/bin/../lib/gcc/i686-w64-mingw32/8.1.0\libstdc++.a(eh_personality.o)
 .rdata         0x6e031ecc       0x3c C:/Program Files (x86)/mingw-w64/i686-8.1.0-win32-dwarf-rt_v6-rev0/mingw32/bin/../lib/gcc/i686-w64-mingw32/8.1.0\libstdc++.a(pure.o)
 .rdata         0x6e031f08       0x90 C:/Program Files (x86)/mingw-w64/i686-8.1.0-win32-dwarf-rt_v6-rev0/mingw32/bin/../lib/gcc/i686-w64-mingw32/8.1.0\libstdc++.a(vterminate.o)
 .rdata         0x6e031f98       0x10 C:/Program Files (x86)/mingw-w64/i686-8.1.0-win32-dwarf-rt_v6-rev0/mingw32/bin/../lib/gcc/i686-w64-mingw32/8.1.0\libstdc++.a(bad_alloc.o)
 *fill*         0x6e031fa8       0x18 
 .rdata         0x6e031fc0     0x1940 C:/Program Files (x86)/mingw-w64/i686-8.1.0-win32-dwarf-rt_v6-rev0/mingw32/bin/../lib/gcc/i686-w64-mingw32/8.1.0\libstdc++.a(cp-demangle.o)
 .rdata         0x6e033900        0x8 C:/Program Files (x86)/mingw-w64/i686-8.1.0-win32-dwarf-rt_v6-rev0/mingw32/bin/../lib/gcc/i686-w64-mingw32/8.1.0/../../../../i686-w64-mingw32/lib/../lib\libmingw32.a(lib32_libmingw32_a-gs_support.o)
 .rdata         0x6e033908       0x1c C:/Program Files (x86)/mingw-w64/i686-8.1.0-win32-dwarf-rt_v6-rev0/mingw32/bin/../lib/gcc/i686-w64-mingw32/8.1.0/../../../../i686-w64-mingw32/lib/../lib\libmingw32.a(lib32_libmingw32_a-tlssup.o)
                0x6e033908                __dyn_tls_init_callback
                0x6e03390c                _tls_used
 .rdata         0x6e033924       0xf8 C:/Program Files (x86)/mingw-w64/i686-8.1.0-win32-dwarf-rt_v6-rev0/mingw32/bin/../lib/gcc/i686-w64-mingw32/8.1.0/../../../../i686-w64-mingw32/lib/../lib\libmingw32.a(lib32_libmingw32_a-pseudo-reloc.o)
 .rdata         0x6e033a1c      0x51c C:/Program Files (x86)/mingw-w64/i686-8.1.0-win32-dwarf-rt_v6-rev0/mingw32/bin/../lib/gcc/i686-w64-mingw32/8.1.0\libgcc_eh.a(unwind-dw2.o)
 .rdata         0x6e033f38       0x3c C:/Program Files (x86)/mingw-w64/i686-8.1.0-win32-dwarf-rt_v6-rev0/mingw32/bin/../lib/gcc/i686-w64-mingw32/8.1.0\libgcc_eh.a(unwind-dw2-fde.o)
 .rdata         0x6e033f74       0xdc C:/Program Files (x86)/mingw-w64/i686-8.1.0-win32-dwarf-rt_v6-rev0/mingw32/bin/../lib/gcc/i686-w64-mingw32/8.1.0/../../../../i686-w64-mingw32/lib/../lib\libmingwex.a(lib32_libmingwex_a-wassert.o)
 .rdata         0x6e034050      0x18c C:/Program Files (x86)/mingw-w64/i686-8.1.0-win32-dwarf-rt_v6-rev0/mingw32/bin/../lib/gcc/i686-w64-mingw32/8.1.0/../../../../i686-w64-mingw32/lib/../lib\libmingwex.a(lib32_libmingwex_a-mingw_pformat.o)
 *fill*         0x6e0341dc        0x4 
 .rdata         0x6e0341e0       0x68 C:/Program Files (x86)/mingw-w64/i686-8.1.0-win32-dwarf-rt_v6-rev0/mingw32/bin/../lib/gcc/i686-w64-mingw32/8.1.0/../../../../i686-w64-mingw32/lib/../lib\libmingwex.a(lib32_libmingwex_a-gdtoa.o)
 *fill*         0x6e034248       0x18 
 .rdata         0x6e034260      0x160 C:/Program Files (x86)/mingw-w64/i686-8.1.0-win32-dwarf-rt_v6-rev0/mingw32/bin/../lib/gcc/i686-w64-mingw32/8.1.0/../../../../i686-w64-mingw32/lib/../lib\libmingwex.a(lib32_libmingwex_a-misc.o)
                0x6e034280                __tens_D2A
                0x6e034340                __tinytens_D2A
                0x6e034380                __bigtens_D2A
 *(SORT_BY_NAME(.rdata$*))
 .rdata$_ZSt7nothrow
                0x6e0343c0        0x4 C:/Program Files (x86)/mingw-w64/i686-8.1.0-win32-dwarf-rt_v6-rev0/mingw32/bin/../lib/gcc/i686-w64-mingw32/8.1.0\libstdc++.a(new_handler.o)
                0x6e0343c0                std::nothrow
 .rdata$_ZTIN10__cxxabiv115__forced_unwindE
                0x6e0343c4        0x8 C:/Program Files (x86)/mingw-w64/i686-8.1.0-win32-dwarf-rt_v6-rev0/mingw32/bin/../lib/gcc/i686-w64-mingw32/8.1.0\libstdc++.a(eh_exception.o)
                0x6e0343c4                typeinfo for __cxxabiv1::__forced_unwind
 .rdata$_ZTIN10__cxxabiv117__class_type_infoE
                0x6e0343cc        0xc C:/Program Files (x86)/mingw-w64/i686-8.1.0-win32-dwarf-rt_v6-rev0/mingw32/bin/../lib/gcc/i686-w64-mingw32/8.1.0\libstdc++.a(class_type_info.o)
                0x6e0343cc                typeinfo for __cxxabiv1::__class_type_info
 .rdata$_ZTIN10__cxxabiv119__foreign_exceptionE
                0x6e0343d8        0x8 C:/Program Files (x86)/mingw-w64/i686-8.1.0-win32-dwarf-rt_v6-rev0/mingw32/bin/../lib/gcc/i686-w64-mingw32/8.1.0\libstdc++.a(eh_exception.o)
                0x6e0343d8                typeinfo for __cxxabiv1::__foreign_exception
 .rdata$_ZTIN10__cxxabiv120__si_class_type_infoE
                0x6e0343e0        0xc C:/Program Files (x86)/mingw-w64/i686-8.1.0-win32-dwarf-rt_v6-rev0/mingw32/bin/../lib/gcc/i686-w64-mingw32/8.1.0\libstdc++.a(si_class_type_info.o)
                0x6e0343e0                typeinfo for __cxxabiv1::__si_class_type_info
 .rdata$_ZTIN9IDownload5ErrorE
                0x6e0343ec        0x8 main.o
                0x6e0343ec                typeinfo for IDownload::Error
 .rdata$_ZTIN9__gnu_cxx24__concurrence_lock_errorE
                0x6e0343f4        0xc C:/Program Files (x86)/mingw-w64/i686-8.1.0-win32-dwarf-rt_v6-rev0/mingw32/bin/../lib/gcc/i686-w64-mingw32/8.1.0\libstdc++.a(eh_alloc.o)
                0x6e0343f4                typeinfo for __gnu_cxx::__concurrence_lock_error
 .rdata$_ZTIN9__gnu_cxx26__concurrence_unlock_errorE
                0x6e034400        0xc C:/Program Files (x86)/mingw-w64/i686-8.1.0-win32-dwarf-rt_v6-rev0/mingw32/bin/../lib/gcc/i686-w64-mingw32/8.1.0\libstdc++.a(eh_alloc.o)
                0x6e034400                typeinfo for __gnu_cxx::__concurrence_unlock_error
 .rdata$_ZTISt13bad_exception
                0x6e03440c        0xc C:/Program Files (x86)/mingw-w64/i686-8.1.0-win32-dwarf-rt_v6-rev0/mingw32/bin/../lib/gcc/i686-w64-mingw32/8.1.0\libstdc++.a(eh_exception.o)
                0x6e03440c                typeinfo for std::bad_exception
 .rdata$_ZTISt9bad_alloc
                0x6e034418        0xc C:/Program Files (x86)/mingw-w64/i686-8.1.0-win32-dwarf-rt_v6-rev0/mingw32/bin/../lib/gcc/i686-w64-mingw32/8.1.0\libstdc++.a(new_op.o)
                0x6e034418                typeinfo for std::bad_alloc
 .rdata$_ZTISt9exception
                0x6e034424        0x8 C:/Program Files (x86)/mingw-w64/i686-8.1.0-win32-dwarf-rt_v6-rev0/mingw32/bin/../lib/gcc/i686-w64-mingw32/8.1.0\libstdc++.a(eh_alloc.o)
                0x6e034424                typeinfo for std::exception
 .rdata$_ZTISt9type_info
                0x6e03442c        0x8 C:/Program Files (x86)/mingw-w64/i686-8.1.0-win32-dwarf-rt_v6-rev0/mingw32/bin/../lib/gcc/i686-w64-mingw32/8.1.0\libstdc++.a(class_type_info.o)
                0x6e03442c                typeinfo for std::type_info
 *fill*         0x6e034434        0xc 
 .rdata$_ZTSN10__cxxabiv115__forced_unwindE
                0x6e034440       0x20 C:/Program Files (x86)/mingw-w64/i686-8.1.0-win32-dwarf-rt_v6-rev0/mingw32/bin/../lib/gcc/i686-w64-mingw32/8.1.0\libstdc++.a(eh_exception.o)
                0x6e034440                typeinfo name for __cxxabiv1::__forced_unwind
 .rdata$_ZTSN10__cxxabiv117__class_type_infoE
                0x6e034460       0x40 C:/Program Files (x86)/mingw-w64/i686-8.1.0-win32-dwarf-rt_v6-rev0/mingw32/bin/../lib/gcc/i686-w64-mingw32/8.1.0\libstdc++.a(class_type_info.o)
                0x6e034460                typeinfo name for __cxxabiv1::__class_type_info
 .rdata$_ZTSN10__cxxabiv119__foreign_exceptionE
                0x6e0344a0       0x40 C:/Program Files (x86)/mingw-w64/i686-8.1.0-win32-dwarf-rt_v6-rev0/mingw32/bin/../lib/gcc/i686-w64-mingw32/8.1.0\libstdc++.a(eh_exception.o)
                0x6e0344a0                typeinfo name for __cxxabiv1::__foreign_exception
 .rdata$_ZTSN10__cxxabiv120__si_class_type_infoE
                0x6e0344e0       0x40 C:/Program Files (x86)/mingw-w64/i686-8.1.0-win32-dwarf-rt_v6-rev0/mingw32/bin/../lib/gcc/i686-w64-mingw32/8.1.0\libstdc++.a(si_class_type_info.o)
                0x6e0344e0                typeinfo name for __cxxabiv1::__si_class_type_info
 .rdata$_ZTSN9IDownload5ErrorE
                0x6e034520       0x14 main.o
                0x6e034520                typeinfo name for IDownload::Error
 *fill*         0x6e034534        0xc 
 .rdata$_ZTSN9__gnu_cxx24__concurrence_lock_errorE
                0x6e034540       0x40 C:/Program Files (x86)/mingw-w64/i686-8.1.0-win32-dwarf-rt_v6-rev0/mingw32/bin/../lib/gcc/i686-w64-mingw32/8.1.0\libstdc++.a(eh_alloc.o)
                0x6e034540                typeinfo name for __gnu_cxx::__concurrence_lock_error
 .rdata$_ZTSN9__gnu_cxx26__concurrence_unlock_errorE
                0x6e034580       0x40 C:/Program Files (x86)/mingw-w64/i686-8.1.0-win32-dwarf-rt_v6-rev0/mingw32/bin/../lib/gcc/i686-w64-mingw32/8.1.0\libstdc++.a(eh_alloc.o)
                0x6e034580                typeinfo name for __gnu_cxx::__concurrence_unlock_error
 .rdata$_ZTSSt13bad_exception
                0x6e0345c0       0x14 C:/Program Files (x86)/mingw-w64/i686-8.1.0-win32-dwarf-rt_v6-rev0/mingw32/bin/../lib/gcc/i686-w64-mingw32/8.1.0\libstdc++.a(eh_exception.o)
                0x6e0345c0                typeinfo name for std::bad_exception
 .rdata$_ZTSSt9bad_alloc
                0x6e0345d4       0x10 C:/Program Files (x86)/mingw-w64/i686-8.1.0-win32-dwarf-rt_v6-rev0/mingw32/bin/../lib/gcc/i686-w64-mingw32/8.1.0\libstdc++.a(new_op.o)
                0x6e0345d4                typeinfo name for std::bad_alloc
 .rdata$_ZTSSt9exception
                0x6e0345e4       0x10 C:/Program Files (x86)/mingw-w64/i686-8.1.0-win32-dwarf-rt_v6-rev0/mingw32/bin/../lib/gcc/i686-w64-mingw32/8.1.0\libstdc++.a(eh_alloc.o)
                0x6e0345e4                typeinfo name for std::exception
 .rdata$_ZTSSt9type_info
                0x6e0345f4       0x10 C:/Program Files (x86)/mingw-w64/i686-8.1.0-win32-dwarf-rt_v6-rev0/mingw32/bin/../lib/gcc/i686-w64-mingw32/8.1.0\libstdc++.a(class_type_info.o)
                0x6e0345f4                typeinfo name for std::type_info
 .rdata$_ZTVN10__cxxabiv115__forced_unwindE
                0x6e034604       0x14 C:/Program Files (x86)/mingw-w64/i686-8.1.0-win32-dwarf-rt_v6-rev0/mingw32/bin/../lib/gcc/i686-w64-mingw32/8.1.0\libstdc++.a(eh_exception.o)
                0x6e034604                vtable for __cxxabiv1::__forced_unwind
 .rdata$_ZTVN10__cxxabiv117__class_type_infoE
                0x6e034618       0x2c C:/Program Files (x86)/mingw-w64/i686-8.1.0-win32-dwarf-rt_v6-rev0/mingw32/bin/../lib/gcc/i686-w64-mingw32/8.1.0\libstdc++.a(class_type_info.o)
                0x6e034618                vtable for __cxxabiv1::__class_type_info
 .rdata$_ZTVN10__cxxabiv119__foreign_exceptionE
                0x6e034644       0x14 C:/Program Files (x86)/mingw-w64/i686-8.1.0-win32-dwarf-rt_v6-rev0/mingw32/bin/../lib/gcc/i686-w64-mingw32/8.1.0\libstdc++.a(eh_exception.o)
                0x6e034644                vtable for __cxxabiv1::__foreign_exception
 .rdata$_ZTVN10__cxxabiv120__si_class_type_infoE
                0x6e034658       0x2c C:/Program Files (x86)/mingw-w64/i686-8.1.0-win32-dwarf-rt_v6-rev0/mingw32/bin/../lib/gcc/i686-w64-mingw32/8.1.0\libstdc++.a(si_class_type_info.o)
                0x6e034658                vtable for __cxxabiv1::__si_class_type_info
 .rdata$_ZTVN9__gnu_cxx24__concurrence_lock_errorE
                0x6e034684       0x14 C:/Program Files (x86)/mingw-w64/i686-8.1.0-win32-dwarf-rt_v6-rev0/mingw32/bin/../lib/gcc/i686-w64-mingw32/8.1.0\libstdc++.a(eh_alloc.o)
                0x6e034684                vtable for __gnu_cxx::__concurrence_lock_error
 .rdata$_ZTVN9__gnu_cxx26__concurrence_unlock_errorE
                0x6e034698       0x14 C:/Program Files (x86)/mingw-w64/i686-8.1.0-win32-dwarf-rt_v6-rev0/mingw32/bin/../lib/gcc/i686-w64-mingw32/8.1.0\libstdc++.a(eh_alloc.o)
                0x6e034698                vtable for __gnu_cxx::__concurrence_unlock_error
 .rdata$_ZTVSt13bad_exception
                0x6e0346ac       0x14 C:/Program Files (x86)/mingw-w64/i686-8.1.0-win32-dwarf-rt_v6-rev0/mingw32/bin/../lib/gcc/i686-w64-mingw32/8.1.0\libstdc++.a(eh_exception.o)
                0x6e0346ac                vtable for std::bad_exception
 .rdata$_ZTVSt9bad_alloc
                0x6e0346c0       0x14 C:/Program Files (x86)/mingw-w64/i686-8.1.0-win32-dwarf-rt_v6-rev0/mingw32/bin/../lib/gcc/i686-w64-mingw32/8.1.0\libstdc++.a(bad_alloc.o)
                0x6e0346c0                vtable for std::bad_alloc
 .rdata$_ZTVSt9exception
                0x6e0346d4       0x14 C:/Program Files (x86)/mingw-w64/i686-8.1.0-win32-dwarf-rt_v6-rev0/mingw32/bin/../lib/gcc/i686-w64-mingw32/8.1.0\libstdc++.a(eh_exception.o)
                0x6e0346d4                vtable for std::exception
 .rdata$_ZTVSt9type_info
                0x6e0346e8       0x20 C:/Program Files (x86)/mingw-w64/i686-8.1.0-win32-dwarf-rt_v6-rev0/mingw32/bin/../lib/gcc/i686-w64-mingw32/8.1.0\libstdc++.a(tinfo.o)
                0x6e0346e8                vtable for std::type_info
 .rdata$zzz     0x6e034708       0x40 rsa_verify.o
 .rdata$zzz     0x6e034748       0x40 rc5_32.o
 .rdata$zzz     0x6e034788       0x40 pehlp.o
 .rdata$zzz     0x6e0347c8       0x40 checksumengine.o
 .rdata$zzz     0x6e034808       0x40 symbollist.includer.o
 .rdata$zzz     0x6e034848       0x40 main.o
 .rdata$zzz     0x6e034888       0x40 adler32.o
 .rdata$zzz     0x6e0348c8       0x40 tiny_msg.o
 .rdata$zzz     0x6e034908       0x40 elfhlp.o
 .rdata$zzz     0x6e034948       0x40 basic.o
 .rdata$zzz     0x6e034988       0x40 blake2s-ref.o
 .rdata$zzz     0x6e0349c8       0x14 .\libtomcrypt.a(base64_decode.o)
 .rdata$zzz     0x6e0349dc       0x14 .\libtomcrypt.a(crypt_argchk.o)
 .rdata$zzz     0x6e0349f0       0x14 .\libtomcrypt.a(crypt_ltc_mp_descriptor.o)
 .rdata$zzz     0x6e034a04       0x14 .\libtomcrypt.a(ltm_desc.o)
 .rdata$zzz     0x6e034a18       0x14 .\libtomcrypt.a(pkcs_1_v1_5_decode.o)
 .rdata$zzz     0x6e034a2c       0x14 .\libtomcrypt.a(rsa_exptmod.o)
 .rdata$zzz     0x6e034a40       0x14 .\libtomcrypt.a(rsa_free.o)
 .rdata$zzz     0x6e034a54       0x14 .\libtomcrypt.a(rsa_import.o)
 .rdata$zzz     0x6e034a68       0x14 .\libtomcrypt.a(rsa_make_key.o)
 .rdata$zzz     0x6e034a7c       0x14 .\libtomcrypt.a(sha256.o)
 .rdata$zzz     0x6e034a90       0x14 .\libtomcrypt.a(zeromem.o)
 .rdata$zzz     0x6e034aa4       0x14 .\libtomcrypt.a(bn_mp_2expt.o)
 .rdata$zzz     0x6e034ab8       0x14 .\libtomcrypt.a(bn_mp_add.o)
 .rdata$zzz     0x6e034acc       0x14 .\libtomcrypt.a(bn_mp_add_d.o)
 .rdata$zzz     0x6e034ae0       0x14 .\libtomcrypt.a(bn_mp_clamp.o)
 .rdata$zzz     0x6e034af4       0x14 .\libtomcrypt.a(bn_mp_clear.o)
 .rdata$zzz     0x6e034b08       0x14 .\libtomcrypt.a(bn_mp_cmp.o)
 .rdata$zzz     0x6e034b1c       0x14 .\libtomcrypt.a(bn_mp_cmp_d.o)
 .rdata$zzz     0x6e034b30       0x14 .\libtomcrypt.a(bn_mp_cmp_mag.o)
 .rdata$zzz     0x6e034b44       0x14 .\libtomcrypt.a(bn_mp_cnt_lsb.o)
 .rdata$zzz     0x6e034b58       0x14 .\libtomcrypt.a(bn_mp_copy.o)
 .rdata$zzz     0x6e034b6c       0x14 .\libtomcrypt.a(bn_mp_count_bits.o)
 .rdata$zzz     0x6e034b80       0x14 .\libtomcrypt.a(bn_mp_div.o)
 .rdata$zzz     0x6e034b94       0x14 .\libtomcrypt.a(bn_mp_div_2.o)
 .rdata$zzz     0x6e034ba8       0x14 .\libtomcrypt.a(bn_mp_div_2d.o)
 .rdata$zzz     0x6e034bbc       0x14 .\libtomcrypt.a(bn_mp_exch.o)
 .rdata$zzz     0x6e034bd0       0x14 .\libtomcrypt.a(bn_mp_exptmod.o)
 .rdata$zzz     0x6e034be4       0x14 .\libtomcrypt.a(bn_mp_exptmod_fast.o)
 .rdata$zzz     0x6e034bf8       0x14 .\libtomcrypt.a(bn_mp_gcd.o)
 .rdata$zzz     0x6e034c0c       0x14 .\libtomcrypt.a(bn_mp_get_int.o)
 .rdata$zzz     0x6e034c20       0x14 .\libtomcrypt.a(bn_mp_grow.o)
 .rdata$zzz     0x6e034c34       0x14 .\libtomcrypt.a(bn_mp_init.o)
 .rdata$zzz     0x6e034c48       0x14 .\libtomcrypt.a(bn_mp_init_copy.o)
 .rdata$zzz     0x6e034c5c       0x14 .\libtomcrypt.a(bn_mp_init_size.o)
 .rdata$zzz     0x6e034c70       0x14 .\libtomcrypt.a(bn_mp_invmod.o)
 .rdata$zzz     0x6e034c84       0x14 .\libtomcrypt.a(bn_mp_invmod_slow.o)
 .rdata$zzz     0x6e034c98       0x14 .\libtomcrypt.a(bn_mp_lcm.o)
 .rdata$zzz     0x6e034cac       0x14 .\libtomcrypt.a(bn_mp_lshd.o)
 .rdata$zzz     0x6e034cc0       0x14 .\libtomcrypt.a(bn_mp_mod.o)
 .rdata$zzz     0x6e034cd4       0x14 .\libtomcrypt.a(bn_mp_mod_2d.o)
 .rdata$zzz     0x6e034ce8       0x14 .\libtomcrypt.a(bn_mp_mod_d.o)
 .rdata$zzz     0x6e034cfc       0x14 .\libtomcrypt.a(bn_mp_montgomery_calc_normalization.o)
 .rdata$zzz     0x6e034d10       0x14 .\libtomcrypt.a(bn_mp_montgomery_reduce.o)
 .rdata$zzz     0x6e034d24       0x14 .\libtomcrypt.a(bn_mp_montgomery_setup.o)
 .rdata$zzz     0x6e034d38       0x14 .\libtomcrypt.a(bn_mp_mul.o)
 .rdata$zzz     0x6e034d4c       0x14 .\libtomcrypt.a(bn_mp_mul_2.o)
 .rdata$zzz     0x6e034d60       0x14 .\libtomcrypt.a(bn_mp_mul_2d.o)
 .rdata$zzz     0x6e034d74       0x14 .\libtomcrypt.a(bn_mp_mul_d.o)
 .rdata$zzz     0x6e034d88       0x14 .\libtomcrypt.a(bn_mp_mulmod.o)
 .rdata$zzz     0x6e034d9c       0x14 .\libtomcrypt.a(bn_mp_neg.o)
 .rdata$zzz     0x6e034db0       0x14 .\libtomcrypt.a(bn_mp_prime_is_prime.o)
 .rdata$zzz     0x6e034dc4       0x14 .\libtomcrypt.a(bn_mp_prime_miller_rabin.o)
 .rdata$zzz     0x6e034dd8       0x14 .\libtomcrypt.a(bn_mp_read_radix.o)
 .rdata$zzz     0x6e034dec       0x14 .\libtomcrypt.a(bn_mp_read_unsigned_bin.o)
 .rdata$zzz     0x6e034e00       0x14 .\libtomcrypt.a(bn_mp_reduce_2k.o)
 .rdata$zzz     0x6e034e14       0x14 .\libtomcrypt.a(bn_mp_reduce_2k_setup.o)
 .rdata$zzz     0x6e034e28       0x14 .\libtomcrypt.a(bn_mp_reduce_is_2k.o)
 .rdata$zzz     0x6e034e3c       0x14 .\libtomcrypt.a(bn_mp_reduce_is_2k_l.o)
 .rdata$zzz     0x6e034e50       0x14 .\libtomcrypt.a(bn_mp_rshd.o)
 .rdata$zzz     0x6e034e64       0x14 .\libtomcrypt.a(bn_mp_set.o)
 .rdata$zzz     0x6e034e78       0x14 .\libtomcrypt.a(bn_mp_set_int.o)
 .rdata$zzz     0x6e034e8c       0x14 .\libtomcrypt.a(bn_mp_sqr.o)
 .rdata$zzz     0x6e034ea0       0x14 .\libtomcrypt.a(bn_mp_sqrmod.o)
 .rdata$zzz     0x6e034eb4       0x14 .\libtomcrypt.a(bn_mp_sub.o)
 .rdata$zzz     0x6e034ec8       0x14 .\libtomcrypt.a(bn_mp_sub_d.o)
 .rdata$zzz     0x6e034edc       0x14 .\libtomcrypt.a(bn_mp_to_unsigned_bin.o)
 .rdata$zzz     0x6e034ef0       0x14 .\libtomcrypt.a(bn_mp_toom_mul.o)
 .rdata$zzz     0x6e034f04       0x14 .\libtomcrypt.a(bn_mp_toom_sqr.o)
 .rdata$zzz     0x6e034f18       0x14 .\libtomcrypt.a(bn_mp_toradix.o)
 .rdata$zzz     0x6e034f2c       0x14 .\libtomcrypt.a(bn_mp_unsigned_bin_size.o)
 .rdata$zzz     0x6e034f40       0x14 .\libtomcrypt.a(bn_mp_zero.o)
 .rdata$zzz     0x6e034f54       0x14 .\libtomcrypt.a(bn_prime_tab.o)
 .rdata$zzz     0x6e034f68       0x14 .\libtomcrypt.a(bn_reverse.o)
 .rdata$zzz     0x6e034f7c       0x14 .\libtomcrypt.a(bn_s_mp_add.o)
 .rdata$zzz     0x6e034f90       0x14 .\libtomcrypt.a(bn_s_mp_exptmod.o)
 .rdata$zzz     0x6e034fa4       0x14 .\libtomcrypt.a(bn_s_mp_mul_digs.o)
 .rdata$zzz     0x6e034fb8       0x14 .\libtomcrypt.a(bn_s_mp_sqr.o)
 .rdata$zzz     0x6e034fcc       0x14 .\libtomcrypt.a(bn_s_mp_sub.o)
 .rdata$zzz     0x6e034fe0       0x14 .\libtomcrypt.a(bncore.o)
 .rdata$zzz     0x6e034ff4       0x14 .\libtomcrypt.a(crypt_prng_is_valid.o)
 .rdata$zzz     0x6e035008       0x14 .\libtomcrypt.a(der_decode_sequence_ex.o)
 .rdata$zzz     0x6e03501c       0x14 .\libtomcrypt.a(der_decode_sequence_multi.o)
 .rdata$zzz     0x6e035030       0x14 .\libtomcrypt.a(der_decode_short_integer.o)
 .rdata$zzz     0x6e035044       0x14 .\libtomcrypt.a(der_decode_utctime.o)
 .rdata$zzz     0x6e035058       0x14 .\libtomcrypt.a(der_decode_utf8_string.o)
 .rdata$zzz     0x6e03506c       0x14 .\libtomcrypt.a(der_length_bit_string.o)
 .rdata$zzz     0x6e035080       0x14 .\libtomcrypt.a(der_length_boolean.o)
 .rdata$zzz     0x6e035094       0x14 .\libtomcrypt.a(der_length_ia5_string.o)
 .rdata$zzz     0x6e0350a8       0x14 .\libtomcrypt.a(der_length_integer.o)
 .rdata$zzz     0x6e0350bc       0x14 .\libtomcrypt.a(der_length_object_identifier.o)
 .rdata$zzz     0x6e0350d0       0x14 .\libtomcrypt.a(der_length_octet_string.o)
 .rdata$zzz     0x6e0350e4       0x14 .\libtomcrypt.a(der_length_printable_string.o)
 .rdata$zzz     0x6e0350f8       0x14 .\libtomcrypt.a(der_length_sequence.o)
 .rdata$zzz     0x6e03510c       0x14 .\libtomcrypt.a(der_length_short_integer.o)
 .rdata$zzz     0x6e035120       0x14 .\libtomcrypt.a(der_length_utctime.o)
 .rdata$zzz     0x6e035134       0x14 .\libtomcrypt.a(der_length_utf8_string.o)
 .rdata$zzz     0x6e035148       0x14 .\libtomcrypt.a(multi.o)
 .rdata$zzz     0x6e03515c       0x14 .\libtomcrypt.a(rand_prime.o)
 .rdata$zzz     0x6e035170       0x14 .\libtomcrypt.a(bn_fast_mp_invmod.o)
 .rdata$zzz     0x6e035184       0x14 .\libtomcrypt.a(bn_fast_mp_montgomery_reduce.o)
 .rdata$zzz     0x6e035198       0x14 .\libtomcrypt.a(bn_fast_s_mp_mul_digs.o)
 .rdata$zzz     0x6e0351ac       0x14 .\libtomcrypt.a(bn_fast_s_mp_sqr.o)
 .rdata$zzz     0x6e0351c0       0x14 .\libtomcrypt.a(bn_mp_abs.o)
 .rdata$zzz     0x6e0351d4       0x14 .\libtomcrypt.a(bn_mp_clear_multi.o)
 .rdata$zzz     0x6e0351e8       0x14 .\libtomcrypt.a(bn_mp_div_3.o)
 .rdata$zzz     0x6e0351fc       0x14 .\libtomcrypt.a(bn_mp_div_d.o)
 .rdata$zzz     0x6e035210       0x14 .\libtomcrypt.a(bn_mp_dr_is_modulus.o)
 .rdata$zzz     0x6e035224       0x14 .\libtomcrypt.a(bn_mp_dr_reduce.o)
 .rdata$zzz     0x6e035238       0x14 .\libtomcrypt.a(bn_mp_dr_setup.o)
 .rdata$zzz     0x6e03524c       0x14 .\libtomcrypt.a(bn_mp_init_multi.o)
 .rdata$zzz     0x6e035260       0x14 .\libtomcrypt.a(bn_mp_karatsuba_mul.o)
 .rdata$zzz     0x6e035274       0x14 .\libtomcrypt.a(bn_mp_karatsuba_sqr.o)
 .rdata$zzz     0x6e035288       0x14 .\libtomcrypt.a(bn_mp_prime_is_divisible.o)
 .rdata$zzz     0x6e03529c       0x14 .\libtomcrypt.a(bn_mp_radix_smap.o)
 .rdata$zzz     0x6e0352b0       0x14 .\libtomcrypt.a(bn_mp_reduce.o)
 .rdata$zzz     0x6e0352c4       0x14 .\libtomcrypt.a(bn_mp_reduce_2k_l.o)
 .rdata$zzz     0x6e0352d8       0x14 .\libtomcrypt.a(bn_mp_reduce_2k_setup_l.o)
 .rdata$zzz     0x6e0352ec       0x14 .\libtomcrypt.a(bn_mp_reduce_setup.o)
 .rdata$zzz     0x6e035300       0x14 .\libtomcrypt.a(bn_s_mp_mul_high_digs.o)
 .rdata$zzz     0x6e035314       0x14 .\libtomcrypt.a(crypt_prng_descriptor.o)
 .rdata$zzz     0x6e035328       0x14 .\libtomcrypt.a(der_decode_bit_string.o)
 .rdata$zzz     0x6e03533c       0x14 .\libtomcrypt.a(der_decode_boolean.o)
 .rdata$zzz     0x6e035350       0x14 .\libtomcrypt.a(der_decode_choice.o)
 .rdata$zzz     0x6e035364       0x14 .\libtomcrypt.a(der_decode_ia5_string.o)
 .rdata$zzz     0x6e035378       0x14 .\libtomcrypt.a(der_decode_integer.o)
 .rdata$zzz     0x6e03538c       0x14 .\libtomcrypt.a(der_decode_object_identifier.o)
 .rdata$zzz     0x6e0353a0       0x14 .\libtomcrypt.a(der_decode_octet_string.o)
 .rdata$zzz     0x6e0353b4       0x14 .\libtomcrypt.a(der_decode_printable_string.o)
 .rdata$zzz     0x6e0353c8       0x14 .\libtomcrypt.a(bn_fast_s_mp_mul_high_digs.o)
                0x6e0353dc                __rt_psrelocs_start = .
 *(.rdata_runtime_pseudo_reloc)
                0x6e0353dc                __rt_psrelocs_end = .
                0x00000000                __rt_psrelocs_size = (__rt_psrelocs_end - __rt_psrelocs_start)
                0x6e0353dc                ___RUNTIME_PSEUDO_RELOC_LIST_END__ = .
                0x6e0353dc                __RUNTIME_PSEUDO_RELOC_LIST_END__ = .
                0x6e0353dc                ___RUNTIME_PSEUDO_RELOC_LIST__ = (. - __rt_psrelocs_size)
                0x6e0353dc                __RUNTIME_PSEUDO_RELOC_LIST__ = (. - __rt_psrelocs_size)

.eh_frame       0x6e036000     0x8600
 *(.eh_frame*)
 .eh_frame      0x6e036000      0x160 C:/Program Files (x86)/mingw-w64/i686-8.1.0-win32-dwarf-rt_v6-rev0/mingw32/bin/../lib/gcc/i686-w64-mingw32/8.1.0/../../../../i686-w64-mingw32/lib/../lib/dllcrt2.o
 .eh_frame      0x6e036160       0x68 C:/Program Files (x86)/mingw-w64/i686-8.1.0-win32-dwarf-rt_v6-rev0/mingw32/bin/../lib/gcc/i686-w64-mingw32/8.1.0/crtbegin.o
 .eh_frame$_Z7sprintfPcPKcz
                0x6e0361c8       0x30 rsa_verify.o
 .eh_frame      0x6e0361f8      0x1b0 rsa_verify.o
 .eh_frame      0x6e0363a8       0xd4 rc5_32.o
 .eh_frame      0x6e03647c       0xc8 pehlp.o
 .eh_frame      0x6e036544      0x2f4 checksumengine.o
 .eh_frame$_ZN4IXAC15EarlyInitializeEv
                0x6e036838       0x2c main.o
 .eh_frame$_ZN4IXAC13ReturnVersionEv
                0x6e036864       0x2c main.o
 .eh_frame$_ZN4IXAC9TerminateEv
                0x6e036890       0x2c main.o
 .eh_frame      0x6e0368bc       0xdc main.o
 .eh_frame$_ZN4IXAC10InitializeEv
                0x6e036998       0x30 main.o
 .eh_frame$_ZN4IXAC10ConnectingEv
                0x6e0369c8       0x74 main.o
 .eh_frame$_ZN4IXAC8RunFrameEv
                0x6e036a3c       0x50 main.o
 .eh_frame$_Z8snprintfPcjPKcz
                0x6e036a8c       0x30 main.o
 .eh_frame$_ZN4IXAC11VerifyImageEv
                0x6e036abc       0x70 main.o
 .eh_frame$_ZN9IDownload4ReadEP5msg_t
                0x6e036b2c       0x84 main.o
 .eh_frame$_ZN4IXAC15NetDataCallbackEP5msg_t
                0x6e036bb0       0x60 main.o
 .eh_frame      0x6e036c10      0x148 adler32.o
 .eh_frame      0x6e036d58      0x430 tiny_msg.o
 .eh_frame      0x6e037188      0x330 elfhlp.o
 .eh_frame      0x6e0374b8      0x144 basic.o
 .eh_frame      0x6e0375fc      0x158 blake2s-ref.o
 .eh_frame      0x6e037754       0x48 .\libtomcrypt.a(base64_decode.o)
 .eh_frame      0x6e03779c       0x38 .\libtomcrypt.a(crypt_argchk.o)
 .eh_frame      0x6e0377d4      0x6a4 .\libtomcrypt.a(ltm_desc.o)
 .eh_frame      0x6e037e78       0x48 .\libtomcrypt.a(pkcs_1_v1_5_decode.o)
 .eh_frame      0x6e037ec0       0x48 .\libtomcrypt.a(rsa_exptmod.o)
 .eh_frame      0x6e037f08       0x3c .\libtomcrypt.a(rsa_free.o)
 .eh_frame      0x6e037f44       0x48 .\libtomcrypt.a(rsa_import.o)
 .eh_frame      0x6e037f8c       0x48 .\libtomcrypt.a(rsa_make_key.o)
 .eh_frame      0x6e037fd4      0x16c .\libtomcrypt.a(sha256.o)
 .eh_frame      0x6e038140       0x3c .\libtomcrypt.a(zeromem.o)
 .eh_frame      0x6e03817c       0x44 .\libtomcrypt.a(bn_mp_2expt.o)
 .eh_frame      0x6e0381c0       0x54 .\libtomcrypt.a(bn_mp_add.o)
 .eh_frame      0x6e038214       0x48 .\libtomcrypt.a(bn_mp_add_d.o)
 .eh_frame      0x6e03825c       0x38 .\libtomcrypt.a(bn_mp_clamp.o)
 .eh_frame      0x6e038294       0x3c .\libtomcrypt.a(bn_mp_clear.o)
 .eh_frame      0x6e0382d0       0x40 .\libtomcrypt.a(bn_mp_cmp.o)
 .eh_frame      0x6e038310       0x3c .\libtomcrypt.a(bn_mp_cmp_d.o)
 .eh_frame      0x6e03834c       0x44 .\libtomcrypt.a(bn_mp_cmp_mag.o)
 .eh_frame      0x6e038390       0x3c .\libtomcrypt.a(bn_mp_cnt_lsb.o)
 .eh_frame      0x6e0383cc       0x44 .\libtomcrypt.a(bn_mp_copy.o)
 .eh_frame      0x6e038410       0x38 .\libtomcrypt.a(bn_mp_count_bits.o)
 .eh_frame      0x6e038448       0x48 .\libtomcrypt.a(bn_mp_div.o)
 .eh_frame      0x6e038490       0x44 .\libtomcrypt.a(bn_mp_div_2.o)
 .eh_frame      0x6e0384d4       0x48 .\libtomcrypt.a(bn_mp_div_2d.o)
 .eh_frame      0x6e03851c       0x40 .\libtomcrypt.a(bn_mp_exch.o)
 .eh_frame      0x6e03855c       0x48 .\libtomcrypt.a(bn_mp_exptmod.o)
 .eh_frame      0x6e0385a4       0x48 .\libtomcrypt.a(bn_mp_exptmod_fast.o)
 .eh_frame      0x6e0385ec       0x48 .\libtomcrypt.a(bn_mp_gcd.o)
 .eh_frame      0x6e038634       0x3c .\libtomcrypt.a(bn_mp_get_int.o)
 .eh_frame      0x6e038670       0x40 .\libtomcrypt.a(bn_mp_grow.o)
 .eh_frame      0x6e0386b0       0x3c .\libtomcrypt.a(bn_mp_init.o)
 .eh_frame      0x6e0386ec       0x4c .\libtomcrypt.a(bn_mp_init_copy.o)
 .eh_frame      0x6e038738       0x40 .\libtomcrypt.a(bn_mp_init_size.o)
 .eh_frame      0x6e038778       0x50 .\libtomcrypt.a(bn_mp_invmod.o)
 .eh_frame      0x6e0387c8       0x48 .\libtomcrypt.a(bn_mp_invmod_slow.o)
 .eh_frame      0x6e038810       0x44 .\libtomcrypt.a(bn_mp_lcm.o)
 .eh_frame      0x6e038854       0x44 .\libtomcrypt.a(bn_mp_lshd.o)
 .eh_frame      0x6e038898       0x44 .\libtomcrypt.a(bn_mp_mod.o)
 .eh_frame      0x6e0388dc       0x54 .\libtomcrypt.a(bn_mp_mod_2d.o)
 .eh_frame      0x6e038930       0x38 .\libtomcrypt.a(bn_mp_mod_d.o)
 .eh_frame      0x6e038968       0x44 .\libtomcrypt.a(bn_mp_montgomery_calc_normalization.o)
 .eh_frame      0x6e0389ac       0x64 .\libtomcrypt.a(bn_mp_montgomery_reduce.o)
 .eh_frame      0x6e038a10       0x40 .\libtomcrypt.a(bn_mp_montgomery_setup.o)
 .eh_frame      0x6e038a50       0x44 .\libtomcrypt.a(bn_mp_mul.o)
 .eh_frame      0x6e038a94       0x44 .\libtomcrypt.a(bn_mp_mul_2.o)
 .eh_frame      0x6e038ad8       0x44 .\libtomcrypt.a(bn_mp_mul_2d.o)
 .eh_frame      0x6e038b1c       0x44 .\libtomcrypt.a(bn_mp_mul_d.o)
 .eh_frame      0x6e038b60       0x40 .\libtomcrypt.a(bn_mp_mulmod.o)
 .eh_frame      0x6e038ba0       0x40 .\libtomcrypt.a(bn_mp_neg.o)
 .eh_frame      0x6e038be0       0x44 .\libtomcrypt.a(bn_mp_prime_is_prime.o)
 .eh_frame      0x6e038c24       0x48 .\libtomcrypt.a(bn_mp_prime_miller_rabin.o)
 .eh_frame      0x6e038c6c       0x44 .\libtomcrypt.a(bn_mp_read_radix.o)
 .eh_frame      0x6e038cb0       0x44 .\libtomcrypt.a(bn_mp_read_unsigned_bin.o)
 .eh_frame      0x6e038cf4       0x44 .\libtomcrypt.a(bn_mp_reduce_2k.o)
 .eh_frame      0x6e038d38       0x44 .\libtomcrypt.a(bn_mp_reduce_2k_setup.o)
 .eh_frame      0x6e038d7c       0x44 .\libtomcrypt.a(bn_mp_reduce_is_2k.o)
 .eh_frame      0x6e038dc0       0x40 .\libtomcrypt.a(bn_mp_reduce_is_2k_l.o)
 .eh_frame      0x6e038e00       0x54 .\libtomcrypt.a(bn_mp_rshd.o)
 .eh_frame      0x6e038e54       0x3c .\libtomcrypt.a(bn_mp_set.o)
 .eh_frame      0x6e038e90       0x48 .\libtomcrypt.a(bn_mp_set_int.o)
 .eh_frame      0x6e038ed8       0x3c .\libtomcrypt.a(bn_mp_sqr.o)
 .eh_frame      0x6e038f14       0x40 .\libtomcrypt.a(bn_mp_sqrmod.o)
 .eh_frame      0x6e038f54       0x54 .\libtomcrypt.a(bn_mp_sub.o)
 .eh_frame      0x6e038fa8       0x48 .\libtomcrypt.a(bn_mp_sub_d.o)
 .eh_frame      0x6e038ff0       0x48 .\libtomcrypt.a(bn_mp_to_unsigned_bin.o)
 .eh_frame      0x6e039038       0x48 .\libtomcrypt.a(bn_mp_toom_mul.o)
 .eh_frame      0x6e039080       0x48 .\libtomcrypt.a(bn_mp_toom_sqr.o)
 .eh_frame      0x6e0390c8       0x44 .\libtomcrypt.a(bn_mp_toradix.o)
 .eh_frame      0x6e03910c       0x3c .\libtomcrypt.a(bn_mp_unsigned_bin_size.o)
 .eh_frame      0x6e039148       0x38 .\libtomcrypt.a(bn_mp_zero.o)
 .eh_frame      0x6e039180       0x40 .\libtomcrypt.a(bn_reverse.o)
 .eh_frame      0x6e0391c0       0x44 .\libtomcrypt.a(bn_s_mp_add.o)
 .eh_frame      0x6e039204       0x48 .\libtomcrypt.a(bn_s_mp_exptmod.o)
 .eh_frame      0x6e03924c       0x48 .\libtomcrypt.a(bn_s_mp_mul_digs.o)
 .eh_frame      0x6e039294       0x48 .\libtomcrypt.a(bn_s_mp_sqr.o)
 .eh_frame      0x6e0392dc       0x44 .\libtomcrypt.a(bn_s_mp_sub.o)
 .eh_frame      0x6e039320       0x38 .\libtomcrypt.a(crypt_prng_is_valid.o)
 .eh_frame      0x6e039358       0x48 .\libtomcrypt.a(der_decode_sequence_ex.o)
 .eh_frame      0x6e0393a0       0x44 .\libtomcrypt.a(der_decode_sequence_multi.o)
 .eh_frame      0x6e0393e4       0x44 .\libtomcrypt.a(der_decode_short_integer.o)
 .eh_frame      0x6e039428       0x68 .\libtomcrypt.a(der_decode_utctime.o)
 .eh_frame      0x6e039490       0x48 .\libtomcrypt.a(der_decode_utf8_string.o)
 .eh_frame      0x6e0394d8       0x3c .\libtomcrypt.a(der_length_bit_string.o)
 .eh_frame      0x6e039514       0x3c .\libtomcrypt.a(der_length_boolean.o)
 .eh_frame      0x6e039550       0x84 .\libtomcrypt.a(der_length_ia5_string.o)
 .eh_frame      0x6e0395d4       0x44 .\libtomcrypt.a(der_length_integer.o)
 .eh_frame      0x6e039618       0x64 .\libtomcrypt.a(der_length_object_identifier.o)
 .eh_frame      0x6e03967c       0x40 .\libtomcrypt.a(der_length_octet_string.o)
 .eh_frame      0x6e0396bc       0x84 .\libtomcrypt.a(der_length_printable_string.o)
 .eh_frame      0x6e039740       0x48 .\libtomcrypt.a(der_length_sequence.o)
 .eh_frame      0x6e039788       0x3c .\libtomcrypt.a(der_length_short_integer.o)
 .eh_frame      0x6e0397c4       0x40 .\libtomcrypt.a(der_length_utctime.o)
 .eh_frame      0x6e039804       0x64 .\libtomcrypt.a(der_length_utf8_string.o)
 .eh_frame      0x6e039868       0x68 .\libtomcrypt.a(multi.o)
 .eh_frame      0x6e0398d0       0x48 .\libtomcrypt.a(rand_prime.o)
 .eh_frame      0x6e039918       0x48 .\libtomcrypt.a(bn_fast_mp_invmod.o)
 .eh_frame      0x6e039960       0x54 .\libtomcrypt.a(bn_fast_mp_montgomery_reduce.o)
 .eh_frame      0x6e0399b4       0x48 .\libtomcrypt.a(bn_fast_s_mp_mul_digs.o)
 .eh_frame      0x6e0399fc       0x48 .\libtomcrypt.a(bn_fast_s_mp_sqr.o)
 .eh_frame      0x6e039a44       0x3c .\libtomcrypt.a(bn_mp_abs.o)
 .eh_frame      0x6e039a80       0x3c .\libtomcrypt.a(bn_mp_clear_multi.o)
 .eh_frame      0x6e039abc       0x48 .\libtomcrypt.a(bn_mp_div_3.o)
 .eh_frame      0x6e039b04       0x48 .\libtomcrypt.a(bn_mp_div_d.o)
 .eh_frame      0x6e039b4c       0x38 .\libtomcrypt.a(bn_mp_dr_is_modulus.o)
 .eh_frame      0x6e039b84       0x44 .\libtomcrypt.a(bn_mp_dr_reduce.o)
 .eh_frame      0x6e039bc8       0x38 .\libtomcrypt.a(bn_mp_dr_setup.o)
 .eh_frame      0x6e039c00       0x48 .\libtomcrypt.a(bn_mp_init_multi.o)
 .eh_frame      0x6e039c48       0x48 .\libtomcrypt.a(bn_mp_karatsuba_mul.o)
 .eh_frame      0x6e039c90       0x48 .\libtomcrypt.a(bn_mp_karatsuba_sqr.o)
 .eh_frame      0x6e039cd8       0x44 .\libtomcrypt.a(bn_mp_prime_is_divisible.o)
 .eh_frame      0x6e039d1c       0x48 .\libtomcrypt.a(bn_mp_reduce.o)
 .eh_frame      0x6e039d64       0x44 .\libtomcrypt.a(bn_mp_reduce_2k_l.o)
 .eh_frame      0x6e039da8       0x40 .\libtomcrypt.a(bn_mp_reduce_2k_setup_l.o)
 .eh_frame      0x6e039de8       0x40 .\libtomcrypt.a(bn_mp_reduce_setup.o)
 .eh_frame      0x6e039e28       0x48 .\libtomcrypt.a(bn_s_mp_mul_high_digs.o)
 .eh_frame      0x6e039e70       0x48 .\libtomcrypt.a(der_decode_bit_string.o)
 .eh_frame      0x6e039eb8       0x40 .\libtomcrypt.a(der_decode_boolean.o)
 .eh_frame      0x6e039ef8       0x48 .\libtomcrypt.a(der_decode_choice.o)
 .eh_frame      0x6e039f40       0x48 .\libtomcrypt.a(der_decode_ia5_string.o)
 .eh_frame      0x6e039f88       0x48 .\libtomcrypt.a(der_decode_integer.o)
 .eh_frame      0x6e039fd0       0x48 .\libtomcrypt.a(der_decode_object_identifier.o)
 .eh_frame      0x6e03a018       0x44 .\libtomcrypt.a(der_decode_octet_string.o)
 .eh_frame      0x6e03a05c       0x48 .\libtomcrypt.a(der_decode_printable_string.o)
 .eh_frame      0x6e03a0a4       0x48 .\libtomcrypt.a(bn_fast_s_mp_mul_high_digs.o)
 .eh_frame      0x6e03a0ec      0x138 C:/Program Files (x86)/mingw-w64/i686-8.1.0-win32-dwarf-rt_v6-rev0/mingw32/bin/../lib/gcc/i686-w64-mingw32/8.1.0\libstdc++.a(class_type_info.o)
 .eh_frame      0x6e03a224       0x2c C:/Program Files (x86)/mingw-w64/i686-8.1.0-win32-dwarf-rt_v6-rev0/mingw32/bin/../lib/gcc/i686-w64-mingw32/8.1.0\libstdc++.a(del_ops.o)
 .eh_frame$_ZNK9__gnu_cxx24__concurrence_lock_error4whatEv
                0x6e03a250       0x2c C:/Program Files (x86)/mingw-w64/i686-8.1.0-win32-dwarf-rt_v6-rev0/mingw32/bin/../lib/gcc/i686-w64-mingw32/8.1.0\libstdc++.a(eh_alloc.o)
 .eh_frame$_ZNK9__gnu_cxx26__concurrence_unlock_error4whatEv
                0x6e03a27c       0x2c C:/Program Files (x86)/mingw-w64/i686-8.1.0-win32-dwarf-rt_v6-rev0/mingw32/bin/../lib/gcc/i686-w64-mingw32/8.1.0\libstdc++.a(eh_alloc.o)
 .eh_frame$_ZN9__gnu_cxx24__concurrence_lock_errorD1Ev
                0x6e03a2a8       0x2c C:/Program Files (x86)/mingw-w64/i686-8.1.0-win32-dwarf-rt_v6-rev0/mingw32/bin/../lib/gcc/i686-w64-mingw32/8.1.0\libstdc++.a(eh_alloc.o)
 .eh_frame$_ZN9__gnu_cxx26__concurrence_unlock_errorD1Ev
                0x6e03a2d4       0x2c C:/Program Files (x86)/mingw-w64/i686-8.1.0-win32-dwarf-rt_v6-rev0/mingw32/bin/../lib/gcc/i686-w64-mingw32/8.1.0\libstdc++.a(eh_alloc.o)
 .eh_frame$_ZN9__gnu_cxx24__concurrence_lock_errorD0Ev
                0x6e03a300       0x38 C:/Program Files (x86)/mingw-w64/i686-8.1.0-win32-dwarf-rt_v6-rev0/mingw32/bin/../lib/gcc/i686-w64-mingw32/8.1.0\libstdc++.a(eh_alloc.o)
 .eh_frame$_ZN9__gnu_cxx26__concurrence_unlock_errorD0Ev
                0x6e03a338       0x38 C:/Program Files (x86)/mingw-w64/i686-8.1.0-win32-dwarf-rt_v6-rev0/mingw32/bin/../lib/gcc/i686-w64-mingw32/8.1.0\libstdc++.a(eh_alloc.o)
 .eh_frame      0x6e03a370      0x208 C:/Program Files (x86)/mingw-w64/i686-8.1.0-win32-dwarf-rt_v6-rev0/mingw32/bin/../lib/gcc/i686-w64-mingw32/8.1.0\libstdc++.a(eh_alloc.o)
 .eh_frame$_ZN9__gnu_cxx30__throw_concurrence_lock_errorEv
                0x6e03a578       0x2c C:/Program Files (x86)/mingw-w64/i686-8.1.0-win32-dwarf-rt_v6-rev0/mingw32/bin/../lib/gcc/i686-w64-mingw32/8.1.0\libstdc++.a(eh_alloc.o)
 .eh_frame$_ZN9__gnu_cxx32__throw_concurrence_unlock_errorEv
                0x6e03a5a4       0x2c C:/Program Files (x86)/mingw-w64/i686-8.1.0-win32-dwarf-rt_v6-rev0/mingw32/bin/../lib/gcc/i686-w64-mingw32/8.1.0\libstdc++.a(eh_alloc.o)
 .eh_frame      0x6e03a5d0      0x10c C:/Program Files (x86)/mingw-w64/i686-8.1.0-win32-dwarf-rt_v6-rev0/mingw32/bin/../lib/gcc/i686-w64-mingw32/8.1.0\libstdc++.a(eh_catch.o)
 .eh_frame      0x6e03a6dc      0x118 C:/Program Files (x86)/mingw-w64/i686-8.1.0-win32-dwarf-rt_v6-rev0/mingw32/bin/../lib/gcc/i686-w64-mingw32/8.1.0\libstdc++.a(eh_exception.o)
 .eh_frame      0x6e03a7f4       0x44 C:/Program Files (x86)/mingw-w64/i686-8.1.0-win32-dwarf-rt_v6-rev0/mingw32/bin/../lib/gcc/i686-w64-mingw32/8.1.0\libstdc++.a(eh_globals.o)
 .eh_frame      0x6e03a838      0x30c C:/Program Files (x86)/mingw-w64/i686-8.1.0-win32-dwarf-rt_v6-rev0/mingw32/bin/../lib/gcc/i686-w64-mingw32/8.1.0\libstdc++.a(eh_personality.o)
 .eh_frame      0x6e03ab44      0x124 C:/Program Files (x86)/mingw-w64/i686-8.1.0-win32-dwarf-rt_v6-rev0/mingw32/bin/../lib/gcc/i686-w64-mingw32/8.1.0\libstdc++.a(eh_terminate.o)
 .eh_frame      0x6e03ac68       0xb0 C:/Program Files (x86)/mingw-w64/i686-8.1.0-win32-dwarf-rt_v6-rev0/mingw32/bin/../lib/gcc/i686-w64-mingw32/8.1.0\libstdc++.a(eh_throw.o)
 .eh_frame      0x6e03ad18       0x3c C:/Program Files (x86)/mingw-w64/i686-8.1.0-win32-dwarf-rt_v6-rev0/mingw32/bin/../lib/gcc/i686-w64-mingw32/8.1.0\libstdc++.a(new_op.o)
 .eh_frame      0x6e03ad54       0x40 C:/Program Files (x86)/mingw-w64/i686-8.1.0-win32-dwarf-rt_v6-rev0/mingw32/bin/../lib/gcc/i686-w64-mingw32/8.1.0\libstdc++.a(pure.o)
 .eh_frame      0x6e03ad94      0x15c C:/Program Files (x86)/mingw-w64/i686-8.1.0-win32-dwarf-rt_v6-rev0/mingw32/bin/../lib/gcc/i686-w64-mingw32/8.1.0\libstdc++.a(si_class_type_info.o)
 .eh_frame      0x6e03aef0       0xa4 C:/Program Files (x86)/mingw-w64/i686-8.1.0-win32-dwarf-rt_v6-rev0/mingw32/bin/../lib/gcc/i686-w64-mingw32/8.1.0\libstdc++.a(tinfo.o)
 .eh_frame      0x6e03af94       0x68 C:/Program Files (x86)/mingw-w64/i686-8.1.0-win32-dwarf-rt_v6-rev0/mingw32/bin/../lib/gcc/i686-w64-mingw32/8.1.0\libstdc++.a(vterminate.o)
 .eh_frame      0x6e03affc       0x60 C:/Program Files (x86)/mingw-w64/i686-8.1.0-win32-dwarf-rt_v6-rev0/mingw32/bin/../lib/gcc/i686-w64-mingw32/8.1.0\libstdc++.a(bad_alloc.o)
 .eh_frame      0x6e03b05c      0xbf8 C:/Program Files (x86)/mingw-w64/i686-8.1.0-win32-dwarf-rt_v6-rev0/mingw32/bin/../lib/gcc/i686-w64-mingw32/8.1.0\libstdc++.a(cp-demangle.o)
 .eh_frame      0x6e03bc54       0x2c C:/Program Files (x86)/mingw-w64/i686-8.1.0-win32-dwarf-rt_v6-rev0/mingw32/bin/../lib/gcc/i686-w64-mingw32/8.1.0\libstdc++.a(del_op.o)
 .eh_frame      0x6e03bc80       0x3c C:/Program Files (x86)/mingw-w64/i686-8.1.0-win32-dwarf-rt_v6-rev0/mingw32/bin/../lib/gcc/i686-w64-mingw32/8.1.0\libstdc++.a(eh_call.o)
 .eh_frame      0x6e03bcbc       0x38 C:/Program Files (x86)/mingw-w64/i686-8.1.0-win32-dwarf-rt_v6-rev0/mingw32/bin/../lib/gcc/i686-w64-mingw32/8.1.0\libstdc++.a(eh_type.o)
 .eh_frame      0x6e03bcf4       0x40 C:/Program Files (x86)/mingw-w64/i686-8.1.0-win32-dwarf-rt_v6-rev0/mingw32/bin/../lib/gcc/i686-w64-mingw32/8.1.0\libstdc++.a(new_handler.o)
 .eh_frame      0x6e03bd34       0x68 C:/Program Files (x86)/mingw-w64/i686-8.1.0-win32-dwarf-rt_v6-rev0/mingw32/bin/../lib/gcc/i686-w64-mingw32/8.1.0/../../../../i686-w64-mingw32/lib/../lib\libmingw32.a(lib32_libmingw32_a-gccmain.o)
 .eh_frame      0x6e03bd9c       0x94 C:/Program Files (x86)/mingw-w64/i686-8.1.0-win32-dwarf-rt_v6-rev0/mingw32/bin/../lib/gcc/i686-w64-mingw32/8.1.0/../../../../i686-w64-mingw32/lib/../lib\libmingw32.a(lib32_libmingw32_a-gs_support.o)
 .eh_frame      0x6e03be30       0x94 C:/Program Files (x86)/mingw-w64/i686-8.1.0-win32-dwarf-rt_v6-rev0/mingw32/bin/../lib/gcc/i686-w64-mingw32/8.1.0/../../../../i686-w64-mingw32/lib/../lib\libmingw32.a(lib32_libmingw32_a-tlssup.o)
 .eh_frame      0x6e03bec4       0x40 C:/Program Files (x86)/mingw-w64/i686-8.1.0-win32-dwarf-rt_v6-rev0/mingw32/bin/../lib/gcc/i686-w64-mingw32/8.1.0/../../../../i686-w64-mingw32/lib/../lib\libmingw32.a(lib32_libmingw32_a-mingw_helpers.o)
 .eh_frame      0x6e03bf04       0xb8 C:/Program Files (x86)/mingw-w64/i686-8.1.0-win32-dwarf-rt_v6-rev0/mingw32/bin/../lib/gcc/i686-w64-mingw32/8.1.0/../../../../i686-w64-mingw32/lib/../lib\libmingw32.a(lib32_libmingw32_a-pseudo-reloc.o)
 .eh_frame      0x6e03bfbc      0x128 C:/Program Files (x86)/mingw-w64/i686-8.1.0-win32-dwarf-rt_v6-rev0/mingw32/bin/../lib/gcc/i686-w64-mingw32/8.1.0/../../../../i686-w64-mingw32/lib/../lib\libmingw32.a(lib32_libmingw32_a-tlsthrd.o)
 .eh_frame      0x6e03c0e4      0x18c C:/Program Files (x86)/mingw-w64/i686-8.1.0-win32-dwarf-rt_v6-rev0/mingw32/bin/../lib/gcc/i686-w64-mingw32/8.1.0/../../../../i686-w64-mingw32/lib/../lib\libmingw32.a(lib32_libmingw32_a-pesect.o)
 .eh_frame      0x6e03c270       0x2c C:/Program Files (x86)/mingw-w64/i686-8.1.0-win32-dwarf-rt_v6-rev0/mingw32/bin/../lib/gcc/i686-w64-mingw32/8.1.0/../../../../i686-w64-mingw32/lib/../lib\libmingw32.a(lib32_libmingw32_a-CRT_fp10.o)
 .eh_frame      0x6e03c29c       0x84 C:/Program Files (x86)/mingw-w64/i686-8.1.0-win32-dwarf-rt_v6-rev0/mingw32/bin/../lib/gcc/i686-w64-mingw32/8.1.0\libgcc.a(_udivdi3.o)
 .eh_frame      0x6e03c320      0x2b0 C:/Program Files (x86)/mingw-w64/i686-8.1.0-win32-dwarf-rt_v6-rev0/mingw32/bin/../lib/gcc/i686-w64-mingw32/8.1.0\libgcc.a(gthr-win32.o)
 .eh_frame      0x6e03c5d0      0x858 C:/Program Files (x86)/mingw-w64/i686-8.1.0-win32-dwarf-rt_v6-rev0/mingw32/bin/../lib/gcc/i686-w64-mingw32/8.1.0\libgcc_eh.a(unwind-dw2.o)
 .eh_frame      0x6e03ce28      0x594 C:/Program Files (x86)/mingw-w64/i686-8.1.0-win32-dwarf-rt_v6-rev0/mingw32/bin/../lib/gcc/i686-w64-mingw32/8.1.0\libgcc_eh.a(unwind-dw2-fde.o)
 .eh_frame      0x6e03d3bc      0x1e0 C:/Program Files (x86)/mingw-w64/i686-8.1.0-win32-dwarf-rt_v6-rev0/mingw32/bin/../lib/gcc/i686-w64-mingw32/8.1.0\libgcc_eh.a(emutls.o)
 .eh_frame      0x6e03d59c       0x2c C:/Program Files (x86)/mingw-w64/i686-8.1.0-win32-dwarf-rt_v6-rev0/mingw32/bin/../lib/gcc/i686-w64-mingw32/8.1.0/../../../../i686-w64-mingw32/lib/../lib\libmingwex.a(lib32_libmingwex_a-dllentry.o)
 .eh_frame      0x6e03d5c8       0x2c C:/Program Files (x86)/mingw-w64/i686-8.1.0-win32-dwarf-rt_v6-rev0/mingw32/bin/../lib/gcc/i686-w64-mingw32/8.1.0/../../../../i686-w64-mingw32/lib/../lib\libmingwex.a(lib32_libmingwex_a-dllmain.o)
 .eh_frame      0x6e03d5f4       0xac C:/Program Files (x86)/mingw-w64/i686-8.1.0-win32-dwarf-rt_v6-rev0/mingw32/bin/../lib/gcc/i686-w64-mingw32/8.1.0/../../../../i686-w64-mingw32/lib/../lib\libmingwex.a(lib32_libmingwex_a-wassert.o)
 .eh_frame      0x6e03d6a0       0x50 C:/Program Files (x86)/mingw-w64/i686-8.1.0-win32-dwarf-rt_v6-rev0/mingw32/bin/../lib/gcc/i686-w64-mingw32/8.1.0/../../../../i686-w64-mingw32/lib/../lib\libmingwex.a(lib32_libmingwex_a-mingw_vsnprintf.o)
 .eh_frame      0x6e03d6f0       0x38 C:/Program Files (x86)/mingw-w64/i686-8.1.0-win32-dwarf-rt_v6-rev0/mingw32/bin/../lib/gcc/i686-w64-mingw32/8.1.0/../../../../i686-w64-mingw32/lib/../lib\libmingwex.a(lib32_libmingwex_a-mingw_vsprintf.o)
 .eh_frame      0x6e03d728       0x2c C:/Program Files (x86)/mingw-w64/i686-8.1.0-win32-dwarf-rt_v6-rev0/mingw32/bin/../lib/gcc/i686-w64-mingw32/8.1.0/../../../../i686-w64-mingw32/lib/../lib\libmingwex.a(lib32_libmingwex_a-vsnprintf.o)
 .eh_frame      0x6e03d754      0x400 C:/Program Files (x86)/mingw-w64/i686-8.1.0-win32-dwarf-rt_v6-rev0/mingw32/bin/../lib/gcc/i686-w64-mingw32/8.1.0/../../../../i686-w64-mingw32/lib/../lib\libmingwex.a(lib32_libmingwex_a-mingw_pformat.o)
 .eh_frame      0x6e03db54       0xc4 C:/Program Files (x86)/mingw-w64/i686-8.1.0-win32-dwarf-rt_v6-rev0/mingw32/bin/../lib/gcc/i686-w64-mingw32/8.1.0/../../../../i686-w64-mingw32/lib/../lib\libmingwex.a(lib32_libmingwex_a-dmisc.o)
 .eh_frame      0x6e03dc18       0xa0 C:/Program Files (x86)/mingw-w64/i686-8.1.0-win32-dwarf-rt_v6-rev0/mingw32/bin/../lib/gcc/i686-w64-mingw32/8.1.0/../../../../i686-w64-mingw32/lib/../lib\libmingwex.a(lib32_libmingwex_a-gdtoa.o)
 .eh_frame      0x6e03dcb8       0x94 C:/Program Files (x86)/mingw-w64/i686-8.1.0-win32-dwarf-rt_v6-rev0/mingw32/bin/../lib/gcc/i686-w64-mingw32/8.1.0/../../../../i686-w64-mingw32/lib/../lib\libmingwex.a(lib32_libmingwex_a-gmisc.o)
 .eh_frame      0x6e03dd4c      0x380 C:/Program Files (x86)/mingw-w64/i686-8.1.0-win32-dwarf-rt_v6-rev0/mingw32/bin/../lib/gcc/i686-w64-mingw32/8.1.0/../../../../i686-w64-mingw32/lib/../lib\libmingwex.a(lib32_libmingwex_a-misc.o)
 .eh_frame      0x6e03e0cc      0x12c C:/Program Files (x86)/mingw-w64/i686-8.1.0-win32-dwarf-rt_v6-rev0/mingw32/bin/../lib/gcc/i686-w64-mingw32/8.1.0/../../../../i686-w64-mingw32/lib/../lib\libmingwex.a(lib32_libmingwex_a-mbrtowc.o)
 .eh_frame      0x6e03e1f8       0x3c C:/Program Files (x86)/mingw-w64/i686-8.1.0-win32-dwarf-rt_v6-rev0/mingw32/bin/../lib/gcc/i686-w64-mingw32/8.1.0/../../../../i686-w64-mingw32/lib/../lib\libmingwex.a(lib32_libmingwex_a-strnlen.o)
 .eh_frame      0x6e03e234       0xf0 C:/Program Files (x86)/mingw-w64/i686-8.1.0-win32-dwarf-rt_v6-rev0/mingw32/bin/../lib/gcc/i686-w64-mingw32/8.1.0/../../../../i686-w64-mingw32/lib/../lib\libmingwex.a(lib32_libmingwex_a-wcrtomb.o)
 .eh_frame      0x6e03e324       0x2c C:/Program Files (x86)/mingw-w64/i686-8.1.0-win32-dwarf-rt_v6-rev0/mingw32/bin/../lib/gcc/i686-w64-mingw32/8.1.0/../../../../i686-w64-mingw32/lib/../lib\libmingwex.a(lib32_libmingwex_a-wcsnlen.o)
 .eh_frame      0x6e03e350       0x98 C:/Program Files (x86)/mingw-w64/i686-8.1.0-win32-dwarf-rt_v6-rev0/mingw32/bin/../lib/gcc/i686-w64-mingw32/8.1.0/../../../../i686-w64-mingw32/lib/../lib\libmsvcr100.a(lib32_libmsvcr100_a-onexit_table.o)
 .eh_frame      0x6e03e3e8       0x2c C:/Program Files (x86)/mingw-w64/i686-8.1.0-win32-dwarf-rt_v6-rev0/mingw32/bin/../lib/gcc/i686-w64-mingw32/8.1.0/../../../../i686-w64-mingw32/lib/../lib\libmsvcr100.a(lib32_libmsvcr100_a-acrt_iob_func.o)
 .eh_frame      0x6e03e414       0x40 C:/Program Files (x86)/mingw-w64/i686-8.1.0-win32-dwarf-rt_v6-rev0/mingw32/bin/../lib/gcc/i686-w64-mingw32/8.1.0/../../../../i686-w64-mingw32/lib/../lib\libmingw32.a(lib32_libmingw32_a-tlsmthread.o)
 .eh_frame      0x6e03e454       0x9c C:/Program Files (x86)/mingw-w64/i686-8.1.0-win32-dwarf-rt_v6-rev0/mingw32/bin/../lib/gcc/i686-w64-mingw32/8.1.0\libgcc.a(_umoddi3.o)
 .eh_frame      0x6e03e4f0       0x30 C:/Program Files (x86)/mingw-w64/i686-8.1.0-win32-dwarf-rt_v6-rev0/mingw32/bin/../lib/gcc/i686-w64-mingw32/8.1.0/crtend.o

.pdata
 *(.pdata*)

.bss            0x6e03f000     0x195c
                0x6e03f000                __bss_start__ = .
 *(.bss)
 .bss           0x6e03f000       0x10 C:/Program Files (x86)/mingw-w64/i686-8.1.0-win32-dwarf-rt_v6-rev0/mingw32/bin/../lib/gcc/i686-w64-mingw32/8.1.0/../../../../i686-w64-mingw32/lib/../lib/dllcrt2.o
 .bss           0x6e03f010       0x18 C:/Program Files (x86)/mingw-w64/i686-8.1.0-win32-dwarf-rt_v6-rev0/mingw32/bin/../lib/gcc/i686-w64-mingw32/8.1.0/crtbegin.o
 .bss           0x6e03f028        0x0 rsa_verify.o
 .bss           0x6e03f028        0x0 rc5_32.o
 .bss           0x6e03f028        0x0 pehlp.o
 *fill*         0x6e03f028       0x18 
 .bss           0x6e03f040      0x420 checksumengine.o
                0x6e03f040                xac_gamebindata_ptr
 .bss           0x6e03f460        0x0 symbollist.includer.o
 .bss           0x6e03f460      0x1a0 main.o
                0x6e03f460                imp
                0x6e03f4c0                build_string
 .bss           0x6e03f600        0x0 adler32.o
 .bss           0x6e03f600        0x0 tiny_msg.o
 .bss           0x6e03f600        0x0 elfhlp.o
 .bss           0x6e03f600        0x0 basic.o
 .bss           0x6e03f600        0x0 blake2s-ref.o
 .bss           0x6e03f600        0x0 .\libtomcrypt.a(base64_decode.o)
 .bss           0x6e03f600        0x0 .\libtomcrypt.a(crypt_argchk.o)
 .bss           0x6e03f600        0x0 .\libtomcrypt.a(crypt_ltc_mp_descriptor.o)
 .bss           0x6e03f600        0x0 .\libtomcrypt.a(ltm_desc.o)
 .bss           0x6e03f600        0x0 .\libtomcrypt.a(pkcs_1_v1_5_decode.o)
 .bss           0x6e03f600        0x0 .\libtomcrypt.a(rsa_exptmod.o)
 .bss           0x6e03f600        0x0 .\libtomcrypt.a(rsa_free.o)
 .bss           0x6e03f600        0x0 .\libtomcrypt.a(rsa_import.o)
 .bss           0x6e03f600        0x0 .\libtomcrypt.a(rsa_make_key.o)
 .bss           0x6e03f600        0x0 .\libtomcrypt.a(sha256.o)
 .bss           0x6e03f600        0x0 .\libtomcrypt.a(zeromem.o)
 .bss           0x6e03f600        0x0 .\libtomcrypt.a(bn_mp_2expt.o)
 .bss           0x6e03f600        0x0 .\libtomcrypt.a(bn_mp_add.o)
 .bss           0x6e03f600        0x0 .\libtomcrypt.a(bn_mp_add_d.o)
 .bss           0x6e03f600        0x0 .\libtomcrypt.a(bn_mp_clamp.o)
 .bss           0x6e03f600        0x0 .\libtomcrypt.a(bn_mp_clear.o)
 .bss           0x6e03f600        0x0 .\libtomcrypt.a(bn_mp_cmp.o)
 .bss           0x6e03f600        0x0 .\libtomcrypt.a(bn_mp_cmp_d.o)
 .bss           0x6e03f600        0x0 .\libtomcrypt.a(bn_mp_cmp_mag.o)
 .bss           0x6e03f600        0x0 .\libtomcrypt.a(bn_mp_cnt_lsb.o)
 .bss           0x6e03f600        0x0 .\libtomcrypt.a(bn_mp_copy.o)
 .bss           0x6e03f600        0x0 .\libtomcrypt.a(bn_mp_count_bits.o)
 .bss           0x6e03f600        0x0 .\libtomcrypt.a(bn_mp_div.o)
 .bss           0x6e03f600        0x0 .\libtomcrypt.a(bn_mp_div_2.o)
 .bss           0x6e03f600        0x0 .\libtomcrypt.a(bn_mp_div_2d.o)
 .bss           0x6e03f600        0x0 .\libtomcrypt.a(bn_mp_exch.o)
 .bss           0x6e03f600        0x0 .\libtomcrypt.a(bn_mp_exptmod.o)
 .bss           0x6e03f600        0x0 .\libtomcrypt.a(bn_mp_exptmod_fast.o)
 .bss           0x6e03f600        0x0 .\libtomcrypt.a(bn_mp_gcd.o)
 .bss           0x6e03f600        0x0 .\libtomcrypt.a(bn_mp_get_int.o)
 .bss           0x6e03f600        0x0 .\libtomcrypt.a(bn_mp_grow.o)
 .bss           0x6e03f600        0x0 .\libtomcrypt.a(bn_mp_init.o)
 .bss           0x6e03f600        0x0 .\libtomcrypt.a(bn_mp_init_copy.o)
 .bss           0x6e03f600        0x0 .\libtomcrypt.a(bn_mp_init_size.o)
 .bss           0x6e03f600        0x0 .\libtomcrypt.a(bn_mp_invmod.o)
 .bss           0x6e03f600        0x0 .\libtomcrypt.a(bn_mp_invmod_slow.o)
 .bss           0x6e03f600        0x0 .\libtomcrypt.a(bn_mp_lcm.o)
 .bss           0x6e03f600        0x0 .\libtomcrypt.a(bn_mp_lshd.o)
 .bss           0x6e03f600        0x0 .\libtomcrypt.a(bn_mp_mod.o)
 .bss           0x6e03f600        0x0 .\libtomcrypt.a(bn_mp_mod_2d.o)
 .bss           0x6e03f600        0x0 .\libtomcrypt.a(bn_mp_mod_d.o)
 .bss           0x6e03f600        0x0 .\libtomcrypt.a(bn_mp_montgomery_calc_normalization.o)
 .bss           0x6e03f600        0x0 .\libtomcrypt.a(bn_mp_montgomery_reduce.o)
 .bss           0x6e03f600        0x0 .\libtomcrypt.a(bn_mp_montgomery_setup.o)
 .bss           0x6e03f600        0x0 .\libtomcrypt.a(bn_mp_mul.o)
 .bss           0x6e03f600        0x0 .\libtomcrypt.a(bn_mp_mul_2.o)
 .bss           0x6e03f600        0x0 .\libtomcrypt.a(bn_mp_mul_2d.o)
 .bss           0x6e03f600        0x0 .\libtomcrypt.a(bn_mp_mul_d.o)
 .bss           0x6e03f600        0x0 .\libtomcrypt.a(bn_mp_mulmod.o)
 .bss           0x6e03f600        0x0 .\libtomcrypt.a(bn_mp_neg.o)
 .bss           0x6e03f600        0x0 .\libtomcrypt.a(bn_mp_prime_is_prime.o)
 .bss           0x6e03f600        0x0 .\libtomcrypt.a(bn_mp_prime_miller_rabin.o)
 .bss           0x6e03f600        0x0 .\libtomcrypt.a(bn_mp_read_radix.o)
 .bss           0x6e03f600        0x0 .\libtomcrypt.a(bn_mp_read_unsigned_bin.o)
 .bss           0x6e03f600        0x0 .\libtomcrypt.a(bn_mp_reduce_2k.o)
 .bss           0x6e03f600        0x0 .\libtomcrypt.a(bn_mp_reduce_2k_setup.o)
 .bss           0x6e03f600        0x0 .\libtomcrypt.a(bn_mp_reduce_is_2k.o)
 .bss           0x6e03f600        0x0 .\libtomcrypt.a(bn_mp_reduce_is_2k_l.o)
 .bss           0x6e03f600        0x0 .\libtomcrypt.a(bn_mp_rshd.o)
 .bss           0x6e03f600        0x0 .\libtomcrypt.a(bn_mp_set.o)
 .bss           0x6e03f600        0x0 .\libtomcrypt.a(bn_mp_set_int.o)
 .bss           0x6e03f600        0x0 .\libtomcrypt.a(bn_mp_sqr.o)
 .bss           0x6e03f600        0x0 .\libtomcrypt.a(bn_mp_sqrmod.o)
 .bss           0x6e03f600        0x0 .\libtomcrypt.a(bn_mp_sub.o)
 .bss           0x6e03f600        0x0 .\libtomcrypt.a(bn_mp_sub_d.o)
 .bss           0x6e03f600        0x0 .\libtomcrypt.a(bn_mp_to_unsigned_bin.o)
 .bss           0x6e03f600        0x0 .\libtomcrypt.a(bn_mp_toom_mul.o)
 .bss           0x6e03f600        0x0 .\libtomcrypt.a(bn_mp_toom_sqr.o)
 .bss           0x6e03f600        0x0 .\libtomcrypt.a(bn_mp_toradix.o)
 .bss           0x6e03f600        0x0 .\libtomcrypt.a(bn_mp_unsigned_bin_size.o)
 .bss           0x6e03f600        0x0 .\libtomcrypt.a(bn_mp_zero.o)
 .bss           0x6e03f600        0x0 .\libtomcrypt.a(bn_prime_tab.o)
 .bss           0x6e03f600        0x0 .\libtomcrypt.a(bn_reverse.o)
 .bss           0x6e03f600        0x0 .\libtomcrypt.a(bn_s_mp_add.o)
 .bss           0x6e03f600        0x0 .\libtomcrypt.a(bn_s_mp_exptmod.o)
 .bss           0x6e03f600        0x0 .\libtomcrypt.a(bn_s_mp_mul_digs.o)
 .bss           0x6e03f600        0x0 .\libtomcrypt.a(bn_s_mp_sqr.o)
 .bss           0x6e03f600        0x0 .\libtomcrypt.a(bn_s_mp_sub.o)
 .bss           0x6e03f600        0x0 .\libtomcrypt.a(bncore.o)
 .bss           0x6e03f600        0x0 .\libtomcrypt.a(crypt_prng_is_valid.o)
 .bss           0x6e03f600        0x0 .\libtomcrypt.a(der_decode_sequence_ex.o)
 .bss           0x6e03f600        0x0 .\libtomcrypt.a(der_decode_sequence_multi.o)
 .bss           0x6e03f600        0x0 .\libtomcrypt.a(der_decode_short_integer.o)
 .bss           0x6e03f600        0x0 .\libtomcrypt.a(der_decode_utctime.o)
 .bss           0x6e03f600        0x0 .\libtomcrypt.a(der_decode_utf8_string.o)
 .bss           0x6e03f600        0x0 .\libtomcrypt.a(der_length_bit_string.o)
 .bss           0x6e03f600        0x0 .\libtomcrypt.a(der_length_boolean.o)
 .bss           0x6e03f600        0x0 .\libtomcrypt.a(der_length_ia5_string.o)
 .bss           0x6e03f600        0x0 .\libtomcrypt.a(der_length_integer.o)
 .bss           0x6e03f600        0x0 .\libtomcrypt.a(der_length_object_identifier.o)
 .bss           0x6e03f600        0x0 .\libtomcrypt.a(der_length_octet_string.o)
 .bss           0x6e03f600        0x0 .\libtomcrypt.a(der_length_printable_string.o)
 .bss           0x6e03f600        0x0 .\libtomcrypt.a(der_length_sequence.o)
 .bss           0x6e03f600        0x0 .\libtomcrypt.a(der_length_short_integer.o)
 .bss           0x6e03f600        0x0 .\libtomcrypt.a(der_length_utctime.o)
 .bss           0x6e03f600        0x0 .\libtomcrypt.a(der_length_utf8_string.o)
 .bss           0x6e03f600        0x0 .\libtomcrypt.a(multi.o)
 .bss           0x6e03f600        0x0 .\libtomcrypt.a(rand_prime.o)
 .bss           0x6e03f600        0x0 .\libtomcrypt.a(bn_fast_mp_invmod.o)
 .bss           0x6e03f600        0x0 .\libtomcrypt.a(bn_fast_mp_montgomery_reduce.o)
 .bss           0x6e03f600        0x0 .\libtomcrypt.a(bn_fast_s_mp_mul_digs.o)
 .bss           0x6e03f600        0x0 .\libtomcrypt.a(bn_fast_s_mp_sqr.o)
 .bss           0x6e03f600        0x0 .\libtomcrypt.a(bn_mp_abs.o)
 .bss           0x6e03f600        0x0 .\libtomcrypt.a(bn_mp_clear_multi.o)
 .bss           0x6e03f600        0x0 .\libtomcrypt.a(bn_mp_div_3.o)
 .bss           0x6e03f600        0x0 .\libtomcrypt.a(bn_mp_div_d.o)
 .bss           0x6e03f600        0x0 .\libtomcrypt.a(bn_mp_dr_is_modulus.o)
 .bss           0x6e03f600        0x0 .\libtomcrypt.a(bn_mp_dr_reduce.o)
 .bss           0x6e03f600        0x0 .\libtomcrypt.a(bn_mp_dr_setup.o)
 .bss           0x6e03f600        0x0 .\libtomcrypt.a(bn_mp_init_multi.o)
 .bss           0x6e03f600        0x0 .\libtomcrypt.a(bn_mp_karatsuba_mul.o)
 .bss           0x6e03f600        0x0 .\libtomcrypt.a(bn_mp_karatsuba_sqr.o)
 .bss           0x6e03f600        0x0 .\libtomcrypt.a(bn_mp_prime_is_divisible.o)
 .bss           0x6e03f600        0x0 .\libtomcrypt.a(bn_mp_radix_smap.o)
 .bss           0x6e03f600        0x0 .\libtomcrypt.a(bn_mp_reduce.o)
 .bss           0x6e03f600        0x0 .\libtomcrypt.a(bn_mp_reduce_2k_l.o)
 .bss           0x6e03f600        0x0 .\libtomcrypt.a(bn_mp_reduce_2k_setup_l.o)
 .bss           0x6e03f600        0x0 .\libtomcrypt.a(bn_mp_reduce_setup.o)
 .bss           0x6e03f600        0x0 .\libtomcrypt.a(bn_s_mp_mul_high_digs.o)
 .bss           0x6e03f600      0x500 .\libtomcrypt.a(crypt_prng_descriptor.o)
                0x6e03f600                prng_descriptor
 .bss           0x6e03fb00        0x0 .\libtomcrypt.a(der_decode_bit_string.o)
 .bss           0x6e03fb00        0x0 .\libtomcrypt.a(der_decode_boolean.o)
 .bss           0x6e03fb00        0x0 .\libtomcrypt.a(der_decode_choice.o)
 .bss           0x6e03fb00        0x0 .\libtomcrypt.a(der_decode_ia5_string.o)
 .bss           0x6e03fb00        0x0 .\libtomcrypt.a(der_decode_integer.o)
 .bss           0x6e03fb00        0x0 .\libtomcrypt.a(der_decode_object_identifier.o)
 .bss           0x6e03fb00        0x0 .\libtomcrypt.a(der_decode_octet_string.o)
 .bss           0x6e03fb00        0x0 .\libtomcrypt.a(der_decode_printable_string.o)
 .bss           0x6e03fb00        0x0 .\libtomcrypt.a(bn_fast_s_mp_mul_high_digs.o)
 .bss           0x6e03fb00        0x0 C:/Program Files (x86)/mingw-w64/i686-8.1.0-win32-dwarf-rt_v6-rev0/mingw32/bin/../lib/gcc/i686-w64-mingw32/8.1.0\libstdc++.a(class_type_info.o)
 .bss           0x6e03fb00        0x0 C:/Program Files (x86)/mingw-w64/i686-8.1.0-win32-dwarf-rt_v6-rev0/mingw32/bin/../lib/gcc/i686-w64-mingw32/8.1.0\libstdc++.a(del_ops.o)
 .bss           0x6e03fb00        0x0 C:/Program Files (x86)/mingw-w64/i686-8.1.0-win32-dwarf-rt_v6-rev0/mingw32/bin/../lib/gcc/i686-w64-mingw32/8.1.0\libstdc++.a(eh_alloc.o)
 .bss           0x6e03fb00        0x0 C:/Program Files (x86)/mingw-w64/i686-8.1.0-win32-dwarf-rt_v6-rev0/mingw32/bin/../lib/gcc/i686-w64-mingw32/8.1.0\libstdc++.a(eh_catch.o)
 .bss           0x6e03fb00        0x0 C:/Program Files (x86)/mingw-w64/i686-8.1.0-win32-dwarf-rt_v6-rev0/mingw32/bin/../lib/gcc/i686-w64-mingw32/8.1.0\libstdc++.a(eh_exception.o)
 .bss           0x6e03fb00        0x0 C:/Program Files (x86)/mingw-w64/i686-8.1.0-win32-dwarf-rt_v6-rev0/mingw32/bin/../lib/gcc/i686-w64-mingw32/8.1.0\libstdc++.a(eh_globals.o)
 .bss           0x6e03fb00        0x0 C:/Program Files (x86)/mingw-w64/i686-8.1.0-win32-dwarf-rt_v6-rev0/mingw32/bin/../lib/gcc/i686-w64-mingw32/8.1.0\libstdc++.a(eh_personality.o)
 .bss           0x6e03fb00        0x0 C:/Program Files (x86)/mingw-w64/i686-8.1.0-win32-dwarf-rt_v6-rev0/mingw32/bin/../lib/gcc/i686-w64-mingw32/8.1.0\libstdc++.a(eh_terminate.o)
 .bss           0x6e03fb00        0x0 C:/Program Files (x86)/mingw-w64/i686-8.1.0-win32-dwarf-rt_v6-rev0/mingw32/bin/../lib/gcc/i686-w64-mingw32/8.1.0\libstdc++.a(eh_term_handler.o)
 .bss           0x6e03fb00        0x0 C:/Program Files (x86)/mingw-w64/i686-8.1.0-win32-dwarf-rt_v6-rev0/mingw32/bin/../lib/gcc/i686-w64-mingw32/8.1.0\libstdc++.a(eh_throw.o)
 .bss           0x6e03fb00        0x0 C:/Program Files (x86)/mingw-w64/i686-8.1.0-win32-dwarf-rt_v6-rev0/mingw32/bin/../lib/gcc/i686-w64-mingw32/8.1.0\libstdc++.a(eh_unex_handler.o)
 .bss           0x6e03fb00        0x0 C:/Program Files (x86)/mingw-w64/i686-8.1.0-win32-dwarf-rt_v6-rev0/mingw32/bin/../lib/gcc/i686-w64-mingw32/8.1.0\libstdc++.a(new_op.o)
 .bss           0x6e03fb00        0x0 C:/Program Files (x86)/mingw-w64/i686-8.1.0-win32-dwarf-rt_v6-rev0/mingw32/bin/../lib/gcc/i686-w64-mingw32/8.1.0\libstdc++.a(pure.o)
 .bss           0x6e03fb00        0x0 C:/Program Files (x86)/mingw-w64/i686-8.1.0-win32-dwarf-rt_v6-rev0/mingw32/bin/../lib/gcc/i686-w64-mingw32/8.1.0\libstdc++.a(si_class_type_info.o)
 .bss           0x6e03fb00        0x0 C:/Program Files (x86)/mingw-w64/i686-8.1.0-win32-dwarf-rt_v6-rev0/mingw32/bin/../lib/gcc/i686-w64-mingw32/8.1.0\libstdc++.a(tinfo.o)
 .bss           0x6e03fb00        0x0 C:/Program Files (x86)/mingw-w64/i686-8.1.0-win32-dwarf-rt_v6-rev0/mingw32/bin/../lib/gcc/i686-w64-mingw32/8.1.0\libstdc++.a(vterminate.o)
 .bss           0x6e03fb00        0x0 C:/Program Files (x86)/mingw-w64/i686-8.1.0-win32-dwarf-rt_v6-rev0/mingw32/bin/../lib/gcc/i686-w64-mingw32/8.1.0\libstdc++.a(bad_alloc.o)
 .bss           0x6e03fb00        0x0 C:/Program Files (x86)/mingw-w64/i686-8.1.0-win32-dwarf-rt_v6-rev0/mingw32/bin/../lib/gcc/i686-w64-mingw32/8.1.0\libstdc++.a(cp-demangle.o)
 .bss           0x6e03fb00        0x0 C:/Program Files (x86)/mingw-w64/i686-8.1.0-win32-dwarf-rt_v6-rev0/mingw32/bin/../lib/gcc/i686-w64-mingw32/8.1.0\libstdc++.a(del_op.o)
 .bss           0x6e03fb00        0x0 C:/Program Files (x86)/mingw-w64/i686-8.1.0-win32-dwarf-rt_v6-rev0/mingw32/bin/../lib/gcc/i686-w64-mingw32/8.1.0\libstdc++.a(eh_call.o)
 .bss           0x6e03fb00        0x0 C:/Program Files (x86)/mingw-w64/i686-8.1.0-win32-dwarf-rt_v6-rev0/mingw32/bin/../lib/gcc/i686-w64-mingw32/8.1.0\libstdc++.a(eh_type.o)
 .bss           0x6e03fb00        0x0 C:/Program Files (x86)/mingw-w64/i686-8.1.0-win32-dwarf-rt_v6-rev0/mingw32/bin/../lib/gcc/i686-w64-mingw32/8.1.0\libstdc++.a(new_handler.o)
 .bss           0x6e03fb00        0x0 C:/Program Files (x86)/mingw-w64/i686-8.1.0-win32-dwarf-rt_v6-rev0/mingw32/bin/../lib/gcc/i686-w64-mingw32/8.1.0/../../../../i686-w64-mingw32/lib/../lib\libkernel32.a(dgzcs01243.o)
 .bss           0x6e03fb00        0x0 C:/Program Files (x86)/mingw-w64/i686-8.1.0-win32-dwarf-rt_v6-rev0/mingw32/bin/../lib/gcc/i686-w64-mingw32/8.1.0/../../../../i686-w64-mingw32/lib/../lib\libkernel32.a(dgzcs01239.o)
 .bss           0x6e03fb00        0x0 C:/Program Files (x86)/mingw-w64/i686-8.1.0-win32-dwarf-rt_v6-rev0/mingw32/bin/../lib/gcc/i686-w64-mingw32/8.1.0/../../../../i686-w64-mingw32/lib/../lib\libkernel32.a(dgzcs01233.o)
 .bss           0x6e03fb00        0x0 C:/Program Files (x86)/mingw-w64/i686-8.1.0-win32-dwarf-rt_v6-rev0/mingw32/bin/../lib/gcc/i686-w64-mingw32/8.1.0/../../../../i686-w64-mingw32/lib/../lib\libkernel32.a(dgzcs01176.o)
 .bss           0x6e03fb00        0x0 C:/Program Files (x86)/mingw-w64/i686-8.1.0-win32-dwarf-rt_v6-rev0/mingw32/bin/../lib/gcc/i686-w64-mingw32/8.1.0/../../../../i686-w64-mingw32/lib/../lib\libkernel32.a(dgzcs00839.o)
 .bss           0x6e03fb00        0x0 C:/Program Files (x86)/mingw-w64/i686-8.1.0-win32-dwarf-rt_v6-rev0/mingw32/bin/../lib/gcc/i686-w64-mingw32/8.1.0/../../../../i686-w64-mingw32/lib/../lib\libkernel32.a(dgzcs00584.o)
 .bss           0x6e03fb00        0x0 C:/Program Files (x86)/mingw-w64/i686-8.1.0-win32-dwarf-rt_v6-rev0/mingw32/bin/../lib/gcc/i686-w64-mingw32/8.1.0/../../../../i686-w64-mingw32/lib/../lib\libkernel32.a(dgzcs00536.o)
 .bss           0x6e03fb00        0x0 C:/Program Files (x86)/mingw-w64/i686-8.1.0-win32-dwarf-rt_v6-rev0/mingw32/bin/../lib/gcc/i686-w64-mingw32/8.1.0/../../../../i686-w64-mingw32/lib/../lib\libkernel32.a(dgzcs00535.o)
 .bss           0x6e03fb00        0x0 C:/Program Files (x86)/mingw-w64/i686-8.1.0-win32-dwarf-rt_v6-rev0/mingw32/bin/../lib/gcc/i686-w64-mingw32/8.1.0/../../../../i686-w64-mingw32/lib/../lib\libkernel32.a(dgzcs00359.o)
 .bss           0x6e03fb00        0x0 C:/Program Files (x86)/mingw-w64/i686-8.1.0-win32-dwarf-rt_v6-rev0/mingw32/bin/../lib/gcc/i686-w64-mingw32/8.1.0/../../../../i686-w64-mingw32/lib/../lib\libkernel32.a(dgzch.o)
 .bss           0x6e03fb00        0x0 C:/Program Files (x86)/mingw-w64/i686-8.1.0-win32-dwarf-rt_v6-rev0/mingw32/bin/../lib/gcc/i686-w64-mingw32/8.1.0/../../../../i686-w64-mingw32/lib/../lib\libkernel32.a(dgzct.o)
 .bss           0x6e03fb00        0x4 C:/Program Files (x86)/mingw-w64/i686-8.1.0-win32-dwarf-rt_v6-rev0/mingw32/bin/../lib/gcc/i686-w64-mingw32/8.1.0/../../../../i686-w64-mingw32/lib/../lib\libmingw32.a(lib32_libmingw32_a-gccmain.o)
 .bss           0x6e03fb04        0x0 C:/Program Files (x86)/mingw-w64/i686-8.1.0-win32-dwarf-rt_v6-rev0/mingw32/bin/../lib/gcc/i686-w64-mingw32/8.1.0/../../../../i686-w64-mingw32/lib/../lib\libmingw32.a(lib32_libmingw32_a-natstart.o)
 *fill*         0x6e03fb04       0x1c 
 .bss           0x6e03fb20      0x340 C:/Program Files (x86)/mingw-w64/i686-8.1.0-win32-dwarf-rt_v6-rev0/mingw32/bin/../lib/gcc/i686-w64-mingw32/8.1.0/../../../../i686-w64-mingw32/lib/../lib\libmingw32.a(lib32_libmingw32_a-gs_support.o)
 .bss           0x6e03fe60       0x10 C:/Program Files (x86)/mingw-w64/i686-8.1.0-win32-dwarf-rt_v6-rev0/mingw32/bin/../lib/gcc/i686-w64-mingw32/8.1.0/../../../../i686-w64-mingw32/lib/../lib\libmingw32.a(lib32_libmingw32_a-tlssup.o)
                0x6e03fe60                mingw_initltssuo_force
                0x6e03fe64                mingw_initltsdyn_force
                0x6e03fe68                mingw_initltsdrot_force
                0x6e03fe6c                _tls_index
 .bss           0x6e03fe70        0x0 C:/Program Files (x86)/mingw-w64/i686-8.1.0-win32-dwarf-rt_v6-rev0/mingw32/bin/../lib/gcc/i686-w64-mingw32/8.1.0/../../../../i686-w64-mingw32/lib/../lib\libmingw32.a(lib32_libmingw32_a-cinitexe.o)
 .bss           0x6e03fe70        0x4 C:/Program Files (x86)/mingw-w64/i686-8.1.0-win32-dwarf-rt_v6-rev0/mingw32/bin/../lib/gcc/i686-w64-mingw32/8.1.0/../../../../i686-w64-mingw32/lib/../lib\libmingw32.a(lib32_libmingw32_a-mingw_helpers.o)
                0x6e03fe70                mingw_app_type
 .bss           0x6e03fe74        0xc C:/Program Files (x86)/mingw-w64/i686-8.1.0-win32-dwarf-rt_v6-rev0/mingw32/bin/../lib/gcc/i686-w64-mingw32/8.1.0/../../../../i686-w64-mingw32/lib/../lib\libmingw32.a(lib32_libmingw32_a-pseudo-reloc.o)
 .bss           0x6e03fe80       0x20 C:/Program Files (x86)/mingw-w64/i686-8.1.0-win32-dwarf-rt_v6-rev0/mingw32/bin/../lib/gcc/i686-w64-mingw32/8.1.0/../../../../i686-w64-mingw32/lib/../lib\libmingw32.a(lib32_libmingw32_a-tlsthrd.o)
 .bss           0x6e03fea0        0x0 C:/Program Files (x86)/mingw-w64/i686-8.1.0-win32-dwarf-rt_v6-rev0/mingw32/bin/../lib/gcc/i686-w64-mingw32/8.1.0/../../../../i686-w64-mingw32/lib/../lib\libmingw32.a(lib32_libmingw32_a-tlsmcrt.o)
 .bss           0x6e03fea0        0x4 C:/Program Files (x86)/mingw-w64/i686-8.1.0-win32-dwarf-rt_v6-rev0/mingw32/bin/../lib/gcc/i686-w64-mingw32/8.1.0/../../../../i686-w64-mingw32/lib/../lib\libmingw32.a(lib32_libmingw32_a-pseudo-reloc-list.o)
 .bss           0x6e03fea4        0x0 C:/Program Files (x86)/mingw-w64/i686-8.1.0-win32-dwarf-rt_v6-rev0/mingw32/bin/../lib/gcc/i686-w64-mingw32/8.1.0/../../../../i686-w64-mingw32/lib/../lib\libmingw32.a(lib32_libmingw32_a-pesect.o)
 .bss           0x6e03fea4        0x0 C:/Program Files (x86)/mingw-w64/i686-8.1.0-win32-dwarf-rt_v6-rev0/mingw32/bin/../lib/gcc/i686-w64-mingw32/8.1.0/../../../../i686-w64-mingw32/lib/../lib\libmingw32.a(lib32_libmingw32_a-CRT_fp10.o)
 .bss           0x6e03fea4        0x0 C:/Program Files (x86)/mingw-w64/i686-8.1.0-win32-dwarf-rt_v6-rev0/mingw32/bin/../lib/gcc/i686-w64-mingw32/8.1.0\libgcc.a(_chkstk_ms.o)
 .bss           0x6e03fea4        0x0 C:/Program Files (x86)/mingw-w64/i686-8.1.0-win32-dwarf-rt_v6-rev0/mingw32/bin/../lib/gcc/i686-w64-mingw32/8.1.0\libgcc.a(_ctors.o)
 .bss           0x6e03fea4        0x0 C:/Program Files (x86)/mingw-w64/i686-8.1.0-win32-dwarf-rt_v6-rev0/mingw32/bin/../lib/gcc/i686-w64-mingw32/8.1.0\libgcc.a(_udivdi3.o)
 .bss           0x6e03fea4        0x0 C:/Program Files (x86)/mingw-w64/i686-8.1.0-win32-dwarf-rt_v6-rev0/mingw32/bin/../lib/gcc/i686-w64-mingw32/8.1.0\libgcc.a(gthr-win32.o)
 .bss           0x6e03fea4       0x14 C:/Program Files (x86)/mingw-w64/i686-8.1.0-win32-dwarf-rt_v6-rev0/mingw32/bin/../lib/gcc/i686-w64-mingw32/8.1.0\libgcc_eh.a(unwind-dw2.o)
 .bss           0x6e03feb8       0x14 C:/Program Files (x86)/mingw-w64/i686-8.1.0-win32-dwarf-rt_v6-rev0/mingw32/bin/../lib/gcc/i686-w64-mingw32/8.1.0\libgcc_eh.a(unwind-dw2-fde.o)
 .bss           0x6e03fecc       0x10 C:/Program Files (x86)/mingw-w64/i686-8.1.0-win32-dwarf-rt_v6-rev0/mingw32/bin/../lib/gcc/i686-w64-mingw32/8.1.0\libgcc_eh.a(emutls.o)
 .bss           0x6e03fedc        0x0 C:/Program Files (x86)/mingw-w64/i686-8.1.0-win32-dwarf-rt_v6-rev0/mingw32/bin/../lib/gcc/i686-w64-mingw32/8.1.0/../../../../i686-w64-mingw32/lib/../lib\libmingwex.a(lib32_libmingwex_a-dllentry.o)
 .bss           0x6e03fedc        0x0 C:/Program Files (x86)/mingw-w64/i686-8.1.0-win32-dwarf-rt_v6-rev0/mingw32/bin/../lib/gcc/i686-w64-mingw32/8.1.0/../../../../i686-w64-mingw32/lib/../lib\libmingwex.a(lib32_libmingwex_a-dllmain.o)
 .bss           0x6e03fedc        0x0 C:/Program Files (x86)/mingw-w64/i686-8.1.0-win32-dwarf-rt_v6-rev0/mingw32/bin/../lib/gcc/i686-w64-mingw32/8.1.0/../../../../i686-w64-mingw32/lib/../lib\libmingwex.a(lib32_libmingwex_a-wassert.o)
 .bss           0x6e03fedc        0x0 C:/Program Files (x86)/mingw-w64/i686-8.1.0-win32-dwarf-rt_v6-rev0/mingw32/bin/../lib/gcc/i686-w64-mingw32/8.1.0/../../../../i686-w64-mingw32/lib/../lib\libmingwex.a(lib32_libmingwex_a-mingw_vsnprintf.o)
 .bss           0x6e03fedc        0x0 C:/Program Files (x86)/mingw-w64/i686-8.1.0-win32-dwarf-rt_v6-rev0/mingw32/bin/../lib/gcc/i686-w64-mingw32/8.1.0/../../../../i686-w64-mingw32/lib/../lib\libmingwex.a(lib32_libmingwex_a-mingw_vsprintf.o)
 .bss           0x6e03fedc        0x0 C:/Program Files (x86)/mingw-w64/i686-8.1.0-win32-dwarf-rt_v6-rev0/mingw32/bin/../lib/gcc/i686-w64-mingw32/8.1.0/../../../../i686-w64-mingw32/lib/../lib\libmingwex.a(lib32_libmingwex_a-vsnprintf.o)
 .bss           0x6e03fedc        0x0 C:/Program Files (x86)/mingw-w64/i686-8.1.0-win32-dwarf-rt_v6-rev0/mingw32/bin/../lib/gcc/i686-w64-mingw32/8.1.0/../../../../i686-w64-mingw32/lib/../lib\libmingwex.a(lib32_libmingwex_a-mingw_pformat.o)
 .bss           0x6e03fedc        0x0 C:/Program Files (x86)/mingw-w64/i686-8.1.0-win32-dwarf-rt_v6-rev0/mingw32/bin/../lib/gcc/i686-w64-mingw32/8.1.0/../../../../i686-w64-mingw32/lib/../lib\libmingwex.a(lib32_libmingwex_a-dmisc.o)
 .bss           0x6e03fedc        0x0 C:/Program Files (x86)/mingw-w64/i686-8.1.0-win32-dwarf-rt_v6-rev0/mingw32/bin/../lib/gcc/i686-w64-mingw32/8.1.0/../../../../i686-w64-mingw32/lib/../lib\libmingwex.a(lib32_libmingwex_a-gdtoa.o)
 .bss           0x6e03fedc        0x0 C:/Program Files (x86)/mingw-w64/i686-8.1.0-win32-dwarf-rt_v6-rev0/mingw32/bin/../lib/gcc/i686-w64-mingw32/8.1.0/../../../../i686-w64-mingw32/lib/../lib\libmingwex.a(lib32_libmingwex_a-gmisc.o)
 *fill*         0x6e03fedc        0x4 
 .bss           0x6e03fee0      0x9a0 C:/Program Files (x86)/mingw-w64/i686-8.1.0-win32-dwarf-rt_v6-rev0/mingw32/bin/../lib/gcc/i686-w64-mingw32/8.1.0/../../../../i686-w64-mingw32/lib/../lib\libmingwex.a(lib32_libmingwex_a-misc.o)
 .bss           0x6e040880        0xc C:/Program Files (x86)/mingw-w64/i686-8.1.0-win32-dwarf-rt_v6-rev0/mingw32/bin/../lib/gcc/i686-w64-mingw32/8.1.0/../../../../i686-w64-mingw32/lib/../lib\libmingwex.a(lib32_libmingwex_a-mbrtowc.o)
 .bss           0x6e04088c        0x0 C:/Program Files (x86)/mingw-w64/i686-8.1.0-win32-dwarf-rt_v6-rev0/mingw32/bin/../lib/gcc/i686-w64-mingw32/8.1.0/../../../../i686-w64-mingw32/lib/../lib\libmingwex.a(lib32_libmingwex_a-strnlen.o)
 .bss           0x6e04088c        0x0 C:/Program Files (x86)/mingw-w64/i686-8.1.0-win32-dwarf-rt_v6-rev0/mingw32/bin/../lib/gcc/i686-w64-mingw32/8.1.0/../../../../i686-w64-mingw32/lib/../lib\libmingwex.a(lib32_libmingwex_a-wcrtomb.o)
 .bss           0x6e04088c        0x0 C:/Program Files (x86)/mingw-w64/i686-8.1.0-win32-dwarf-rt_v6-rev0/mingw32/bin/../lib/gcc/i686-w64-mingw32/8.1.0/../../../../i686-w64-mingw32/lib/../lib\libmingwex.a(lib32_libmingwex_a-wcsnlen.o)
 .bss           0x6e04088c        0x0 C:/Program Files (x86)/mingw-w64/i686-8.1.0-win32-dwarf-rt_v6-rev0/mingw32/bin/../lib/gcc/i686-w64-mingw32/8.1.0/../../../../i686-w64-mingw32/lib/../lib\libmsvcr100.a(dwnfs01726.o)
 .bss           0x6e04088c        0x0 C:/Program Files (x86)/mingw-w64/i686-8.1.0-win32-dwarf-rt_v6-rev0/mingw32/bin/../lib/gcc/i686-w64-mingw32/8.1.0/../../../../i686-w64-mingw32/lib/../lib\libmsvcr100.a(dwnfs01722.o)
 .bss           0x6e04088c        0x0 C:/Program Files (x86)/mingw-w64/i686-8.1.0-win32-dwarf-rt_v6-rev0/mingw32/bin/../lib/gcc/i686-w64-mingw32/8.1.0/../../../../i686-w64-mingw32/lib/../lib\libmsvcr100.a(dwnfs01704.o)
 .bss           0x6e04088c        0x0 C:/Program Files (x86)/mingw-w64/i686-8.1.0-win32-dwarf-rt_v6-rev0/mingw32/bin/../lib/gcc/i686-w64-mingw32/8.1.0/../../../../i686-w64-mingw32/lib/../lib\libmsvcr100.a(dwnfs01699.o)
 .bss           0x6e04088c        0x0 C:/Program Files (x86)/mingw-w64/i686-8.1.0-win32-dwarf-rt_v6-rev0/mingw32/bin/../lib/gcc/i686-w64-mingw32/8.1.0/../../../../i686-w64-mingw32/lib/../lib\libmsvcr100.a(dwnfs01681.o)
 .bss           0x6e04088c        0x0 C:/Program Files (x86)/mingw-w64/i686-8.1.0-win32-dwarf-rt_v6-rev0/mingw32/bin/../lib/gcc/i686-w64-mingw32/8.1.0/../../../../i686-w64-mingw32/lib/../lib\libmsvcr100.a(dwnfs01675.o)
 .bss           0x6e04088c        0x0 C:/Program Files (x86)/mingw-w64/i686-8.1.0-win32-dwarf-rt_v6-rev0/mingw32/bin/../lib/gcc/i686-w64-mingw32/8.1.0/../../../../i686-w64-mingw32/lib/../lib\libmsvcr100.a(dwnfs01674.o)
 .bss           0x6e04088c        0x0 C:/Program Files (x86)/mingw-w64/i686-8.1.0-win32-dwarf-rt_v6-rev0/mingw32/bin/../lib/gcc/i686-w64-mingw32/8.1.0/../../../../i686-w64-mingw32/lib/../lib\libmsvcr100.a(dwnfs01671.o)
 .bss           0x6e04088c        0x0 C:/Program Files (x86)/mingw-w64/i686-8.1.0-win32-dwarf-rt_v6-rev0/mingw32/bin/../lib/gcc/i686-w64-mingw32/8.1.0/../../../../i686-w64-mingw32/lib/../lib\libmsvcr100.a(dwnfs01668.o)
 .bss           0x6e04088c        0x0 C:/Program Files (x86)/mingw-w64/i686-8.1.0-win32-dwarf-rt_v6-rev0/mingw32/bin/../lib/gcc/i686-w64-mingw32/8.1.0/../../../../i686-w64-mingw32/lib/../lib\libmsvcr100.a(dwnfs01665.o)
 .bss           0x6e04088c        0x0 C:/Program Files (x86)/mingw-w64/i686-8.1.0-win32-dwarf-rt_v6-rev0/mingw32/bin/../lib/gcc/i686-w64-mingw32/8.1.0/../../../../i686-w64-mingw32/lib/../lib\libmsvcr100.a(dwnfs01663.o)
 .bss           0x6e04088c        0x0 C:/Program Files (x86)/mingw-w64/i686-8.1.0-win32-dwarf-rt_v6-rev0/mingw32/bin/../lib/gcc/i686-w64-mingw32/8.1.0/../../../../i686-w64-mingw32/lib/../lib\libmsvcr100.a(dwnfs01654.o)
 .bss           0x6e04088c        0x0 C:/Program Files (x86)/mingw-w64/i686-8.1.0-win32-dwarf-rt_v6-rev0/mingw32/bin/../lib/gcc/i686-w64-mingw32/8.1.0/../../../../i686-w64-mingw32/lib/../lib\libmsvcr100.a(dwnfs01645.o)
 .bss           0x6e04088c        0x0 C:/Program Files (x86)/mingw-w64/i686-8.1.0-win32-dwarf-rt_v6-rev0/mingw32/bin/../lib/gcc/i686-w64-mingw32/8.1.0/../../../../i686-w64-mingw32/lib/../lib\libmsvcr100.a(dwnfs01642.o)
 .bss           0x6e04088c        0x0 C:/Program Files (x86)/mingw-w64/i686-8.1.0-win32-dwarf-rt_v6-rev0/mingw32/bin/../lib/gcc/i686-w64-mingw32/8.1.0/../../../../i686-w64-mingw32/lib/../lib\libmsvcr100.a(dwnfs01639.o)
 .bss           0x6e04088c        0x0 C:/Program Files (x86)/mingw-w64/i686-8.1.0-win32-dwarf-rt_v6-rev0/mingw32/bin/../lib/gcc/i686-w64-mingw32/8.1.0/../../../../i686-w64-mingw32/lib/../lib\libmsvcr100.a(dwnfs01626.o)
 .bss           0x6e04088c        0x0 C:/Program Files (x86)/mingw-w64/i686-8.1.0-win32-dwarf-rt_v6-rev0/mingw32/bin/../lib/gcc/i686-w64-mingw32/8.1.0/../../../../i686-w64-mingw32/lib/../lib\libmsvcr100.a(dwnfs01622.o)
 .bss           0x6e04088c        0x0 C:/Program Files (x86)/mingw-w64/i686-8.1.0-win32-dwarf-rt_v6-rev0/mingw32/bin/../lib/gcc/i686-w64-mingw32/8.1.0/../../../../i686-w64-mingw32/lib/../lib\libmsvcr100.a(dwnfs01621.o)
 .bss           0x6e04088c        0x0 C:/Program Files (x86)/mingw-w64/i686-8.1.0-win32-dwarf-rt_v6-rev0/mingw32/bin/../lib/gcc/i686-w64-mingw32/8.1.0/../../../../i686-w64-mingw32/lib/../lib\libmsvcr100.a(dwnfs01611.o)
 .bss           0x6e04088c        0x0 C:/Program Files (x86)/mingw-w64/i686-8.1.0-win32-dwarf-rt_v6-rev0/mingw32/bin/../lib/gcc/i686-w64-mingw32/8.1.0/../../../../i686-w64-mingw32/lib/../lib\libmsvcr100.a(dwnfs01607.o)
 .bss           0x6e04088c        0x0 C:/Program Files (x86)/mingw-w64/i686-8.1.0-win32-dwarf-rt_v6-rev0/mingw32/bin/../lib/gcc/i686-w64-mingw32/8.1.0/../../../../i686-w64-mingw32/lib/../lib\libmsvcr100.a(dwnfs01565.o)
 .bss           0x6e04088c        0x0 C:/Program Files (x86)/mingw-w64/i686-8.1.0-win32-dwarf-rt_v6-rev0/mingw32/bin/../lib/gcc/i686-w64-mingw32/8.1.0/../../../../i686-w64-mingw32/lib/../lib\libmsvcr100.a(dwnfs01563.o)
 .bss           0x6e04088c        0x0 C:/Program Files (x86)/mingw-w64/i686-8.1.0-win32-dwarf-rt_v6-rev0/mingw32/bin/../lib/gcc/i686-w64-mingw32/8.1.0/../../../../i686-w64-mingw32/lib/../lib\libmsvcr100.a(dwnfs01560.o)
 .bss           0x6e04088c        0x0 C:/Program Files (x86)/mingw-w64/i686-8.1.0-win32-dwarf-rt_v6-rev0/mingw32/bin/../lib/gcc/i686-w64-mingw32/8.1.0/../../../../i686-w64-mingw32/lib/../lib\libmsvcr100.a(dwnfs01558.o)
 .bss           0x6e04088c        0x0 C:/Program Files (x86)/mingw-w64/i686-8.1.0-win32-dwarf-rt_v6-rev0/mingw32/bin/../lib/gcc/i686-w64-mingw32/8.1.0/../../../../i686-w64-mingw32/lib/../lib\libmsvcr100.a(dwnfs01553.o)
 .bss           0x6e04088c        0x0 C:/Program Files (x86)/mingw-w64/i686-8.1.0-win32-dwarf-rt_v6-rev0/mingw32/bin/../lib/gcc/i686-w64-mingw32/8.1.0/../../../../i686-w64-mingw32/lib/../lib\libmsvcr100.a(dwnfs01551.o)
 .bss           0x6e04088c        0x0 C:/Program Files (x86)/mingw-w64/i686-8.1.0-win32-dwarf-rt_v6-rev0/mingw32/bin/../lib/gcc/i686-w64-mingw32/8.1.0/../../../../i686-w64-mingw32/lib/../lib\libmsvcr100.a(dwnfs01548.o)
 .bss           0x6e04088c        0x0 C:/Program Files (x86)/mingw-w64/i686-8.1.0-win32-dwarf-rt_v6-rev0/mingw32/bin/../lib/gcc/i686-w64-mingw32/8.1.0/../../../../i686-w64-mingw32/lib/../lib\libmsvcr100.a(dwnfs01547.o)
 .bss           0x6e04088c        0x0 C:/Program Files (x86)/mingw-w64/i686-8.1.0-win32-dwarf-rt_v6-rev0/mingw32/bin/../lib/gcc/i686-w64-mingw32/8.1.0/../../../../i686-w64-mingw32/lib/../lib\libmsvcr100.a(dwnfs01545.o)
 .bss           0x6e04088c        0x0 C:/Program Files (x86)/mingw-w64/i686-8.1.0-win32-dwarf-rt_v6-rev0/mingw32/bin/../lib/gcc/i686-w64-mingw32/8.1.0/../../../../i686-w64-mingw32/lib/../lib\libmsvcr100.a(dwnfs01543.o)
 .bss           0x6e04088c        0x0 C:/Program Files (x86)/mingw-w64/i686-8.1.0-win32-dwarf-rt_v6-rev0/mingw32/bin/../lib/gcc/i686-w64-mingw32/8.1.0/../../../../i686-w64-mingw32/lib/../lib\libmsvcr100.a(dwnfs01532.o)
 .bss           0x6e04088c        0x0 C:/Program Files (x86)/mingw-w64/i686-8.1.0-win32-dwarf-rt_v6-rev0/mingw32/bin/../lib/gcc/i686-w64-mingw32/8.1.0/../../../../i686-w64-mingw32/lib/../lib\libmsvcr100.a(dwnfs01521.o)
 .bss           0x6e04088c        0x0 C:/Program Files (x86)/mingw-w64/i686-8.1.0-win32-dwarf-rt_v6-rev0/mingw32/bin/../lib/gcc/i686-w64-mingw32/8.1.0/../../../../i686-w64-mingw32/lib/../lib\libmsvcr100.a(dwnfs01516.o)
 .bss           0x6e04088c        0x0 C:/Program Files (x86)/mingw-w64/i686-8.1.0-win32-dwarf-rt_v6-rev0/mingw32/bin/../lib/gcc/i686-w64-mingw32/8.1.0/../../../../i686-w64-mingw32/lib/../lib\libmsvcr100.a(dwnfs01503.o)
 .bss           0x6e04088c        0x0 C:/Program Files (x86)/mingw-w64/i686-8.1.0-win32-dwarf-rt_v6-rev0/mingw32/bin/../lib/gcc/i686-w64-mingw32/8.1.0/../../../../i686-w64-mingw32/lib/../lib\libmsvcr100.a(dwnfs01456.o)
 .bss           0x6e04088c        0x0 C:/Program Files (x86)/mingw-w64/i686-8.1.0-win32-dwarf-rt_v6-rev0/mingw32/bin/../lib/gcc/i686-w64-mingw32/8.1.0/../../../../i686-w64-mingw32/lib/../lib\libmsvcr100.a(dwnfs01426.o)
 .bss           0x6e04088c        0x0 C:/Program Files (x86)/mingw-w64/i686-8.1.0-win32-dwarf-rt_v6-rev0/mingw32/bin/../lib/gcc/i686-w64-mingw32/8.1.0/../../../../i686-w64-mingw32/lib/../lib\libmsvcr100.a(dwnfs01314.o)
 .bss           0x6e04088c        0x0 C:/Program Files (x86)/mingw-w64/i686-8.1.0-win32-dwarf-rt_v6-rev0/mingw32/bin/../lib/gcc/i686-w64-mingw32/8.1.0/../../../../i686-w64-mingw32/lib/../lib\libmsvcr100.a(dwnfs01179.o)
 .bss           0x6e04088c        0x0 C:/Program Files (x86)/mingw-w64/i686-8.1.0-win32-dwarf-rt_v6-rev0/mingw32/bin/../lib/gcc/i686-w64-mingw32/8.1.0/../../../../i686-w64-mingw32/lib/../lib\libmsvcr100.a(dwnfs01126.o)
 .bss           0x6e04088c        0x0 C:/Program Files (x86)/mingw-w64/i686-8.1.0-win32-dwarf-rt_v6-rev0/mingw32/bin/../lib/gcc/i686-w64-mingw32/8.1.0/../../../../i686-w64-mingw32/lib/../lib\libmsvcr100.a(dwnfs00744.o)
 .bss           0x6e04088c        0x0 C:/Program Files (x86)/mingw-w64/i686-8.1.0-win32-dwarf-rt_v6-rev0/mingw32/bin/../lib/gcc/i686-w64-mingw32/8.1.0/../../../../i686-w64-mingw32/lib/../lib\libmsvcr100.a(dwnfs00735.o)
 .bss           0x6e04088c        0x0 C:/Program Files (x86)/mingw-w64/i686-8.1.0-win32-dwarf-rt_v6-rev0/mingw32/bin/../lib/gcc/i686-w64-mingw32/8.1.0/../../../../i686-w64-mingw32/lib/../lib\libmsvcr100.a(dwnfs00576.o)
 .bss           0x6e04088c        0x0 C:/Program Files (x86)/mingw-w64/i686-8.1.0-win32-dwarf-rt_v6-rev0/mingw32/bin/../lib/gcc/i686-w64-mingw32/8.1.0/../../../../i686-w64-mingw32/lib/../lib\libmsvcr100.a(dwnfs00559.o)
 .bss           0x6e04088c        0x0 C:/Program Files (x86)/mingw-w64/i686-8.1.0-win32-dwarf-rt_v6-rev0/mingw32/bin/../lib/gcc/i686-w64-mingw32/8.1.0/../../../../i686-w64-mingw32/lib/../lib\libmsvcr100.a(dwnfs00457.o)
 .bss           0x6e04088c        0x0 C:/Program Files (x86)/mingw-w64/i686-8.1.0-win32-dwarf-rt_v6-rev0/mingw32/bin/../lib/gcc/i686-w64-mingw32/8.1.0/../../../../i686-w64-mingw32/lib/../lib\libmsvcr100.a(dwnfs00332.o)
 .bss           0x6e04088c        0x0 C:/Program Files (x86)/mingw-w64/i686-8.1.0-win32-dwarf-rt_v6-rev0/mingw32/bin/../lib/gcc/i686-w64-mingw32/8.1.0/../../../../i686-w64-mingw32/lib/../lib\libmsvcr100.a(dwnfs00329.o)
 .bss           0x6e04088c        0x0 C:/Program Files (x86)/mingw-w64/i686-8.1.0-win32-dwarf-rt_v6-rev0/mingw32/bin/../lib/gcc/i686-w64-mingw32/8.1.0/../../../../i686-w64-mingw32/lib/../lib\libmsvcr100.a(lib32_libmsvcr100_a-onexit_table.o)
 .bss           0x6e04088c        0x0 C:/Program Files (x86)/mingw-w64/i686-8.1.0-win32-dwarf-rt_v6-rev0/mingw32/bin/../lib/gcc/i686-w64-mingw32/8.1.0/../../../../i686-w64-mingw32/lib/../lib\libmsvcr100.a(lib32_libmsvcr100_a-acrt_iob_func.o)
 .bss           0x6e04088c        0x0 C:/Program Files (x86)/mingw-w64/i686-8.1.0-win32-dwarf-rt_v6-rev0/mingw32/bin/../lib/gcc/i686-w64-mingw32/8.1.0/../../../../i686-w64-mingw32/lib/../lib\libmsvcr100.a(dwnfh.o)
 .bss           0x6e04088c        0x0 C:/Program Files (x86)/mingw-w64/i686-8.1.0-win32-dwarf-rt_v6-rev0/mingw32/bin/../lib/gcc/i686-w64-mingw32/8.1.0/../../../../i686-w64-mingw32/lib/../lib\libmsvcr100.a(dwnfs01276.o)
 .bss           0x6e04088c        0x0 C:/Program Files (x86)/mingw-w64/i686-8.1.0-win32-dwarf-rt_v6-rev0/mingw32/bin/../lib/gcc/i686-w64-mingw32/8.1.0/../../../../i686-w64-mingw32/lib/../lib\libmsvcr100.a(dwnfs00858.o)
 .bss           0x6e04088c        0x0 C:/Program Files (x86)/mingw-w64/i686-8.1.0-win32-dwarf-rt_v6-rev0/mingw32/bin/../lib/gcc/i686-w64-mingw32/8.1.0/../../../../i686-w64-mingw32/lib/../lib\libmsvcr100.a(dwnft.o)
 .bss           0x6e04088c        0x0 C:/Program Files (x86)/mingw-w64/i686-8.1.0-win32-dwarf-rt_v6-rev0/mingw32/bin/../lib/gcc/i686-w64-mingw32/8.1.0/../../../../i686-w64-mingw32/lib/../lib\libuser32.a(dmces00595.o)
 .bss           0x6e04088c        0x0 C:/Program Files (x86)/mingw-w64/i686-8.1.0-win32-dwarf-rt_v6-rev0/mingw32/bin/../lib/gcc/i686-w64-mingw32/8.1.0/../../../../i686-w64-mingw32/lib/../lib\libuser32.a(dmceh.o)
 .bss           0x6e04088c        0x0 C:/Program Files (x86)/mingw-w64/i686-8.1.0-win32-dwarf-rt_v6-rev0/mingw32/bin/../lib/gcc/i686-w64-mingw32/8.1.0/../../../../i686-w64-mingw32/lib/../lib\libuser32.a(dmcet.o)
 .bss           0x6e04088c        0x0 C:/Program Files (x86)/mingw-w64/i686-8.1.0-win32-dwarf-rt_v6-rev0/mingw32/bin/../lib/gcc/i686-w64-mingw32/8.1.0/../../../../i686-w64-mingw32/lib/../lib\libkernel32.a(dgzcs01279.o)
 .bss           0x6e04088c        0x0 C:/Program Files (x86)/mingw-w64/i686-8.1.0-win32-dwarf-rt_v6-rev0/mingw32/bin/../lib/gcc/i686-w64-mingw32/8.1.0/../../../../i686-w64-mingw32/lib/../lib\libkernel32.a(dgzcs01255.o)
 .bss           0x6e04088c        0x0 C:/Program Files (x86)/mingw-w64/i686-8.1.0-win32-dwarf-rt_v6-rev0/mingw32/bin/../lib/gcc/i686-w64-mingw32/8.1.0/../../../../i686-w64-mingw32/lib/../lib\libkernel32.a(dgzcs01246.o)
 .bss           0x6e04088c        0x0 C:/Program Files (x86)/mingw-w64/i686-8.1.0-win32-dwarf-rt_v6-rev0/mingw32/bin/../lib/gcc/i686-w64-mingw32/8.1.0/../../../../i686-w64-mingw32/lib/../lib\libkernel32.a(dgzcs01210.o)
 .bss           0x6e04088c        0x0 C:/Program Files (x86)/mingw-w64/i686-8.1.0-win32-dwarf-rt_v6-rev0/mingw32/bin/../lib/gcc/i686-w64-mingw32/8.1.0/../../../../i686-w64-mingw32/lib/../lib\libkernel32.a(dgzcs01198.o)
 .bss           0x6e04088c        0x0 C:/Program Files (x86)/mingw-w64/i686-8.1.0-win32-dwarf-rt_v6-rev0/mingw32/bin/../lib/gcc/i686-w64-mingw32/8.1.0/../../../../i686-w64-mingw32/lib/../lib\libkernel32.a(dgzcs01197.o)
 .bss           0x6e04088c        0x0 C:/Program Files (x86)/mingw-w64/i686-8.1.0-win32-dwarf-rt_v6-rev0/mingw32/bin/../lib/gcc/i686-w64-mingw32/8.1.0/../../../../i686-w64-mingw32/lib/../lib\libkernel32.a(dgzcs01196.o)
 .bss           0x6e04088c        0x0 C:/Program Files (x86)/mingw-w64/i686-8.1.0-win32-dwarf-rt_v6-rev0/mingw32/bin/../lib/gcc/i686-w64-mingw32/8.1.0/../../../../i686-w64-mingw32/lib/../lib\libkernel32.a(dgzcs01195.o)
 .bss           0x6e04088c        0x0 C:/Program Files (x86)/mingw-w64/i686-8.1.0-win32-dwarf-rt_v6-rev0/mingw32/bin/../lib/gcc/i686-w64-mingw32/8.1.0/../../../../i686-w64-mingw32/lib/../lib\libkernel32.a(dgzcs01190.o)
 .bss           0x6e04088c        0x0 C:/Program Files (x86)/mingw-w64/i686-8.1.0-win32-dwarf-rt_v6-rev0/mingw32/bin/../lib/gcc/i686-w64-mingw32/8.1.0/../../../../i686-w64-mingw32/lib/../lib\libkernel32.a(dgzcs01163.o)
 .bss           0x6e04088c        0x0 C:/Program Files (x86)/mingw-w64/i686-8.1.0-win32-dwarf-rt_v6-rev0/mingw32/bin/../lib/gcc/i686-w64-mingw32/8.1.0/../../../../i686-w64-mingw32/lib/../lib\libkernel32.a(dgzcs01114.o)
 .bss           0x6e04088c        0x0 C:/Program Files (x86)/mingw-w64/i686-8.1.0-win32-dwarf-rt_v6-rev0/mingw32/bin/../lib/gcc/i686-w64-mingw32/8.1.0/../../../../i686-w64-mingw32/lib/../lib\libkernel32.a(dgzcs00997.o)
 .bss           0x6e04088c        0x0 C:/Program Files (x86)/mingw-w64/i686-8.1.0-win32-dwarf-rt_v6-rev0/mingw32/bin/../lib/gcc/i686-w64-mingw32/8.1.0/../../../../i686-w64-mingw32/lib/../lib\libkernel32.a(dgzcs00949.o)
 .bss           0x6e04088c        0x0 C:/Program Files (x86)/mingw-w64/i686-8.1.0-win32-dwarf-rt_v6-rev0/mingw32/bin/../lib/gcc/i686-w64-mingw32/8.1.0/../../../../i686-w64-mingw32/lib/../lib\libkernel32.a(dgzcs00884.o)
 .bss           0x6e04088c        0x0 C:/Program Files (x86)/mingw-w64/i686-8.1.0-win32-dwarf-rt_v6-rev0/mingw32/bin/../lib/gcc/i686-w64-mingw32/8.1.0/../../../../i686-w64-mingw32/lib/../lib\libkernel32.a(dgzcs00836.o)
 .bss           0x6e04088c        0x0 C:/Program Files (x86)/mingw-w64/i686-8.1.0-win32-dwarf-rt_v6-rev0/mingw32/bin/../lib/gcc/i686-w64-mingw32/8.1.0/../../../../i686-w64-mingw32/lib/../lib\libkernel32.a(dgzcs00778.o)
 .bss           0x6e04088c        0x0 C:/Program Files (x86)/mingw-w64/i686-8.1.0-win32-dwarf-rt_v6-rev0/mingw32/bin/../lib/gcc/i686-w64-mingw32/8.1.0/../../../../i686-w64-mingw32/lib/../lib\libkernel32.a(dgzcs00750.o)
 .bss           0x6e04088c        0x0 C:/Program Files (x86)/mingw-w64/i686-8.1.0-win32-dwarf-rt_v6-rev0/mingw32/bin/../lib/gcc/i686-w64-mingw32/8.1.0/../../../../i686-w64-mingw32/lib/../lib\libkernel32.a(dgzcs00666.o)
 .bss           0x6e04088c        0x0 C:/Program Files (x86)/mingw-w64/i686-8.1.0-win32-dwarf-rt_v6-rev0/mingw32/bin/../lib/gcc/i686-w64-mingw32/8.1.0/../../../../i686-w64-mingw32/lib/../lib\libkernel32.a(dgzcs00638.o)
 .bss           0x6e04088c        0x0 C:/Program Files (x86)/mingw-w64/i686-8.1.0-win32-dwarf-rt_v6-rev0/mingw32/bin/../lib/gcc/i686-w64-mingw32/8.1.0/../../../../i686-w64-mingw32/lib/../lib\libkernel32.a(dgzcs00518.o)
 .bss           0x6e04088c        0x0 C:/Program Files (x86)/mingw-w64/i686-8.1.0-win32-dwarf-rt_v6-rev0/mingw32/bin/../lib/gcc/i686-w64-mingw32/8.1.0/../../../../i686-w64-mingw32/lib/../lib\libkernel32.a(dgzcs00460.o)
 .bss           0x6e04088c        0x0 C:/Program Files (x86)/mingw-w64/i686-8.1.0-win32-dwarf-rt_v6-rev0/mingw32/bin/../lib/gcc/i686-w64-mingw32/8.1.0/../../../../i686-w64-mingw32/lib/../lib\libkernel32.a(dgzcs00456.o)
 .bss           0x6e04088c        0x0 C:/Program Files (x86)/mingw-w64/i686-8.1.0-win32-dwarf-rt_v6-rev0/mingw32/bin/../lib/gcc/i686-w64-mingw32/8.1.0/../../../../i686-w64-mingw32/lib/../lib\libkernel32.a(dgzcs00455.o)
 .bss           0x6e04088c        0x0 C:/Program Files (x86)/mingw-w64/i686-8.1.0-win32-dwarf-rt_v6-rev0/mingw32/bin/../lib/gcc/i686-w64-mingw32/8.1.0/../../../../i686-w64-mingw32/lib/../lib\libkernel32.a(dgzcs00242.o)
 .bss           0x6e04088c        0x0 C:/Program Files (x86)/mingw-w64/i686-8.1.0-win32-dwarf-rt_v6-rev0/mingw32/bin/../lib/gcc/i686-w64-mingw32/8.1.0/../../../../i686-w64-mingw32/lib/../lib\libkernel32.a(dgzcs00214.o)
 .bss           0x6e04088c        0x0 C:/Program Files (x86)/mingw-w64/i686-8.1.0-win32-dwarf-rt_v6-rev0/mingw32/bin/../lib/gcc/i686-w64-mingw32/8.1.0/../../../../i686-w64-mingw32/lib/../lib\libkernel32.a(dgzcs00178.o)
 .bss           0x6e04088c        0x0 C:/Program Files (x86)/mingw-w64/i686-8.1.0-win32-dwarf-rt_v6-rev0/mingw32/bin/../lib/gcc/i686-w64-mingw32/8.1.0/../../../../i686-w64-mingw32/lib/../lib\libkernel32.a(dgzcs00083.o)
 .bss           0x6e04088c        0x0 C:/Program Files (x86)/mingw-w64/i686-8.1.0-win32-dwarf-rt_v6-rev0/mingw32/bin/../lib/gcc/i686-w64-mingw32/8.1.0/../../../../i686-w64-mingw32/lib/../lib\libmingw32.a(lib32_libmingw32_a-tlsmthread.o)
 .bss           0x6e04088c        0x0 C:/Program Files (x86)/mingw-w64/i686-8.1.0-win32-dwarf-rt_v6-rev0/mingw32/bin/../lib/gcc/i686-w64-mingw32/8.1.0\libgcc.a(_umoddi3.o)
 .bss           0x6e04088c        0x0 C:/Program Files (x86)/mingw-w64/i686-8.1.0-win32-dwarf-rt_v6-rev0/mingw32/bin/../lib/gcc/i686-w64-mingw32/8.1.0/crtend.o
 *(COMMON)
 COMMON         0x6e04088c        0x4 C:/Program Files (x86)/mingw-w64/i686-8.1.0-win32-dwarf-rt_v6-rev0/mingw32/bin/../lib/gcc/i686-w64-mingw32/8.1.0/crtbegin.o
                0x6e04088c                hmod_libgcc
 COMMON         0x6e040890       0xc4 .\libtomcrypt.a(crypt_ltc_mp_descriptor.o)
                0x6e040890                ltc_mp
 COMMON         0x6e040954        0x8 C:/Program Files (x86)/mingw-w64/i686-8.1.0-win32-dwarf-rt_v6-rev0/mingw32/bin/../lib/gcc/i686-w64-mingw32/8.1.0/../../../../i686-w64-mingw32/lib/../lib\libmingw32.a(lib32_libmingw32_a-natstart.o)
                0x6e040954                __native_startup_lock
                0x6e040958                __native_startup_state
 COMMON         0x6e04095c        0x0 C:/Program Files (x86)/mingw-w64/i686-8.1.0-win32-dwarf-rt_v6-rev0/mingw32/bin/../lib/gcc/i686-w64-mingw32/8.1.0\libgcc.a(_ctors.o)
                0x6e04095c                __bss_end__ = .

.edata          0x6e041000      0x200
 *(.edata)
 .edata         0x6e041000       0x69 dll stuff

/DISCARD/
 *(.debug$S)
 *(.debug$T)
 *(.debug$F)
 *(.drectve)
 *(.note.GNU-stack)
 *(.gnu.lto_*)

.idata          0x6e042000      0xa00
 SORT_BY_NAME(*)(.idata$2)
 .idata$2       0x6e042000       0x14 C:/Program Files (x86)/mingw-w64/i686-8.1.0-win32-dwarf-rt_v6-rev0/mingw32/bin/../lib/gcc/i686-w64-mingw32/8.1.0/../../../../i686-w64-mingw32/lib/../lib\libkernel32.a(dgzch.o)
                0x6e042000                _head_lib32_libkernel32_a
 .idata$2       0x6e042014       0x14 C:/Program Files (x86)/mingw-w64/i686-8.1.0-win32-dwarf-rt_v6-rev0/mingw32/bin/../lib/gcc/i686-w64-mingw32/8.1.0/../../../../i686-w64-mingw32/lib/../lib\libmsvcr100.a(dwnfh.o)
                0x6e042014                _head_lib32_libmsvcr100_a
 .idata$2       0x6e042028       0x14 C:/Program Files (x86)/mingw-w64/i686-8.1.0-win32-dwarf-rt_v6-rev0/mingw32/bin/../lib/gcc/i686-w64-mingw32/8.1.0/../../../../i686-w64-mingw32/lib/../lib\libuser32.a(dmceh.o)
                0x6e042028                _head_lib32_libuser32_a
 SORT_BY_NAME(*)(.idata$3)
                0x6e04203c        0x4 LONG 0x0
                0x6e042040        0x4 LONG 0x0
                0x6e042044        0x4 LONG 0x0
                0x6e042048        0x4 LONG 0x0
                0x6e04204c        0x4 LONG 0x0
 SORT_BY_NAME(*)(.idata$4)
 .idata$4       0x6e042050        0x0 C:/Program Files (x86)/mingw-w64/i686-8.1.0-win32-dwarf-rt_v6-rev0/mingw32/bin/../lib/gcc/i686-w64-mingw32/8.1.0/../../../../i686-w64-mingw32/lib/../lib\libkernel32.a(dgzch.o)
 .idata$4       0x6e042050        0x4 C:/Program Files (x86)/mingw-w64/i686-8.1.0-win32-dwarf-rt_v6-rev0/mingw32/bin/../lib/gcc/i686-w64-mingw32/8.1.0/../../../../i686-w64-mingw32/lib/../lib\libkernel32.a(dgzcs00083.o)
 .idata$4       0x6e042054        0x4 C:/Program Files (x86)/mingw-w64/i686-8.1.0-win32-dwarf-rt_v6-rev0/mingw32/bin/../lib/gcc/i686-w64-mingw32/8.1.0/../../../../i686-w64-mingw32/lib/../lib\libkernel32.a(dgzcs00178.o)
 .idata$4       0x6e042058        0x4 C:/Program Files (x86)/mingw-w64/i686-8.1.0-win32-dwarf-rt_v6-rev0/mingw32/bin/../lib/gcc/i686-w64-mingw32/8.1.0/../../../../i686-w64-mingw32/lib/../lib\libkernel32.a(dgzcs00214.o)
 .idata$4       0x6e04205c        0x4 C:/Program Files (x86)/mingw-w64/i686-8.1.0-win32-dwarf-rt_v6-rev0/mingw32/bin/../lib/gcc/i686-w64-mingw32/8.1.0/../../../../i686-w64-mingw32/lib/../lib\libkernel32.a(dgzcs00242.o)
 .idata$4       0x6e042060        0x4 C:/Program Files (x86)/mingw-w64/i686-8.1.0-win32-dwarf-rt_v6-rev0/mingw32/bin/../lib/gcc/i686-w64-mingw32/8.1.0/../../../../i686-w64-mingw32/lib/../lib\libkernel32.a(dgzcs00359.o)
 .idata$4       0x6e042064        0x4 C:/Program Files (x86)/mingw-w64/i686-8.1.0-win32-dwarf-rt_v6-rev0/mingw32/bin/../lib/gcc/i686-w64-mingw32/8.1.0/../../../../i686-w64-mingw32/lib/../lib\libkernel32.a(dgzcs00455.o)
 .idata$4       0x6e042068        0x4 C:/Program Files (x86)/mingw-w64/i686-8.1.0-win32-dwarf-rt_v6-rev0/mingw32/bin/../lib/gcc/i686-w64-mingw32/8.1.0/../../../../i686-w64-mingw32/lib/../lib\libkernel32.a(dgzcs00456.o)
 .idata$4       0x6e04206c        0x4 C:/Program Files (x86)/mingw-w64/i686-8.1.0-win32-dwarf-rt_v6-rev0/mingw32/bin/../lib/gcc/i686-w64-mingw32/8.1.0/../../../../i686-w64-mingw32/lib/../lib\libkernel32.a(dgzcs00460.o)
 .idata$4       0x6e042070        0x4 C:/Program Files (x86)/mingw-w64/i686-8.1.0-win32-dwarf-rt_v6-rev0/mingw32/bin/../lib/gcc/i686-w64-mingw32/8.1.0/../../../../i686-w64-mingw32/lib/../lib\libkernel32.a(dgzcs00518.o)
 .idata$4       0x6e042074        0x4 C:/Program Files (x86)/mingw-w64/i686-8.1.0-win32-dwarf-rt_v6-rev0/mingw32/bin/../lib/gcc/i686-w64-mingw32/8.1.0/../../../../i686-w64-mingw32/lib/../lib\libkernel32.a(dgzcs00535.o)
 .idata$4       0x6e042078        0x4 C:/Program Files (x86)/mingw-w64/i686-8.1.0-win32-dwarf-rt_v6-rev0/mingw32/bin/../lib/gcc/i686-w64-mingw32/8.1.0/../../../../i686-w64-mingw32/lib/../lib\libkernel32.a(dgzcs00536.o)
 .idata$4       0x6e04207c        0x4 C:/Program Files (x86)/mingw-w64/i686-8.1.0-win32-dwarf-rt_v6-rev0/mingw32/bin/../lib/gcc/i686-w64-mingw32/8.1.0/../../../../i686-w64-mingw32/lib/../lib\libkernel32.a(dgzcs00584.o)
 .idata$4       0x6e042080        0x4 C:/Program Files (x86)/mingw-w64/i686-8.1.0-win32-dwarf-rt_v6-rev0/mingw32/bin/../lib/gcc/i686-w64-mingw32/8.1.0/../../../../i686-w64-mingw32/lib/../lib\libkernel32.a(dgzcs00638.o)
 .idata$4       0x6e042084        0x4 C:/Program Files (x86)/mingw-w64/i686-8.1.0-win32-dwarf-rt_v6-rev0/mingw32/bin/../lib/gcc/i686-w64-mingw32/8.1.0/../../../../i686-w64-mingw32/lib/../lib\libkernel32.a(dgzcs00666.o)
 .idata$4       0x6e042088        0x4 C:/Program Files (x86)/mingw-w64/i686-8.1.0-win32-dwarf-rt_v6-rev0/mingw32/bin/../lib/gcc/i686-w64-mingw32/8.1.0/../../../../i686-w64-mingw32/lib/../lib\libkernel32.a(dgzcs00750.o)
 .idata$4       0x6e04208c        0x4 C:/Program Files (x86)/mingw-w64/i686-8.1.0-win32-dwarf-rt_v6-rev0/mingw32/bin/../lib/gcc/i686-w64-mingw32/8.1.0/../../../../i686-w64-mingw32/lib/../lib\libkernel32.a(dgzcs00778.o)
 .idata$4       0x6e042090        0x4 C:/Program Files (x86)/mingw-w64/i686-8.1.0-win32-dwarf-rt_v6-rev0/mingw32/bin/../lib/gcc/i686-w64-mingw32/8.1.0/../../../../i686-w64-mingw32/lib/../lib\libkernel32.a(dgzcs00836.o)
 .idata$4       0x6e042094        0x4 C:/Program Files (x86)/mingw-w64/i686-8.1.0-win32-dwarf-rt_v6-rev0/mingw32/bin/../lib/gcc/i686-w64-mingw32/8.1.0/../../../../i686-w64-mingw32/lib/../lib\libkernel32.a(dgzcs00839.o)
 .idata$4       0x6e042098        0x4 C:/Program Files (x86)/mingw-w64/i686-8.1.0-win32-dwarf-rt_v6-rev0/mingw32/bin/../lib/gcc/i686-w64-mingw32/8.1.0/../../../../i686-w64-mingw32/lib/../lib\libkernel32.a(dgzcs00884.o)
 .idata$4       0x6e04209c        0x4 C:/Program Files (x86)/mingw-w64/i686-8.1.0-win32-dwarf-rt_v6-rev0/mingw32/bin/../lib/gcc/i686-w64-mingw32/8.1.0/../../../../i686-w64-mingw32/lib/../lib\libkernel32.a(dgzcs00949.o)
 .idata$4       0x6e0420a0        0x4 C:/Program Files (x86)/mingw-w64/i686-8.1.0-win32-dwarf-rt_v6-rev0/mingw32/bin/../lib/gcc/i686-w64-mingw32/8.1.0/../../../../i686-w64-mingw32/lib/../lib\libkernel32.a(dgzcs00997.o)
 .idata$4       0x6e0420a4        0x4 C:/Program Files (x86)/mingw-w64/i686-8.1.0-win32-dwarf-rt_v6-rev0/mingw32/bin/../lib/gcc/i686-w64-mingw32/8.1.0/../../../../i686-w64-mingw32/lib/../lib\libkernel32.a(dgzcs01114.o)
 .idata$4       0x6e0420a8        0x4 C:/Program Files (x86)/mingw-w64/i686-8.1.0-win32-dwarf-rt_v6-rev0/mingw32/bin/../lib/gcc/i686-w64-mingw32/8.1.0/../../../../i686-w64-mingw32/lib/../lib\libkernel32.a(dgzcs01163.o)
 .idata$4       0x6e0420ac        0x4 C:/Program Files (x86)/mingw-w64/i686-8.1.0-win32-dwarf-rt_v6-rev0/mingw32/bin/../lib/gcc/i686-w64-mingw32/8.1.0/../../../../i686-w64-mingw32/lib/../lib\libkernel32.a(dgzcs01176.o)
 .idata$4       0x6e0420b0        0x4 C:/Program Files (x86)/mingw-w64/i686-8.1.0-win32-dwarf-rt_v6-rev0/mingw32/bin/../lib/gcc/i686-w64-mingw32/8.1.0/../../../../i686-w64-mingw32/lib/../lib\libkernel32.a(dgzcs01190.o)
 .idata$4       0x6e0420b4        0x4 C:/Program Files (x86)/mingw-w64/i686-8.1.0-win32-dwarf-rt_v6-rev0/mingw32/bin/../lib/gcc/i686-w64-mingw32/8.1.0/../../../../i686-w64-mingw32/lib/../lib\libkernel32.a(dgzcs01195.o)
 .idata$4       0x6e0420b8        0x4 C:/Program Files (x86)/mingw-w64/i686-8.1.0-win32-dwarf-rt_v6-rev0/mingw32/bin/../lib/gcc/i686-w64-mingw32/8.1.0/../../../../i686-w64-mingw32/lib/../lib\libkernel32.a(dgzcs01196.o)
 .idata$4       0x6e0420bc        0x4 C:/Program Files (x86)/mingw-w64/i686-8.1.0-win32-dwarf-rt_v6-rev0/mingw32/bin/../lib/gcc/i686-w64-mingw32/8.1.0/../../../../i686-w64-mingw32/lib/../lib\libkernel32.a(dgzcs01197.o)
 .idata$4       0x6e0420c0        0x4 C:/Program Files (x86)/mingw-w64/i686-8.1.0-win32-dwarf-rt_v6-rev0/mingw32/bin/../lib/gcc/i686-w64-mingw32/8.1.0/../../../../i686-w64-mingw32/lib/../lib\libkernel32.a(dgzcs01198.o)
 .idata$4       0x6e0420c4        0x4 C:/Program Files (x86)/mingw-w64/i686-8.1.0-win32-dwarf-rt_v6-rev0/mingw32/bin/../lib/gcc/i686-w64-mingw32/8.1.0/../../../../i686-w64-mingw32/lib/../lib\libkernel32.a(dgzcs01210.o)
 .idata$4       0x6e0420c8        0x4 C:/Program Files (x86)/mingw-w64/i686-8.1.0-win32-dwarf-rt_v6-rev0/mingw32/bin/../lib/gcc/i686-w64-mingw32/8.1.0/../../../../i686-w64-mingw32/lib/../lib\libkernel32.a(dgzcs01233.o)
 .idata$4       0x6e0420cc        0x4 C:/Program Files (x86)/mingw-w64/i686-8.1.0-win32-dwarf-rt_v6-rev0/mingw32/bin/../lib/gcc/i686-w64-mingw32/8.1.0/../../../../i686-w64-mingw32/lib/../lib\libkernel32.a(dgzcs01239.o)
 .idata$4       0x6e0420d0        0x4 C:/Program Files (x86)/mingw-w64/i686-8.1.0-win32-dwarf-rt_v6-rev0/mingw32/bin/../lib/gcc/i686-w64-mingw32/8.1.0/../../../../i686-w64-mingw32/lib/../lib\libkernel32.a(dgzcs01243.o)
 .idata$4       0x6e0420d4        0x4 C:/Program Files (x86)/mingw-w64/i686-8.1.0-win32-dwarf-rt_v6-rev0/mingw32/bin/../lib/gcc/i686-w64-mingw32/8.1.0/../../../../i686-w64-mingw32/lib/../lib\libkernel32.a(dgzcs01246.o)
 .idata$4       0x6e0420d8        0x4 C:/Program Files (x86)/mingw-w64/i686-8.1.0-win32-dwarf-rt_v6-rev0/mingw32/bin/../lib/gcc/i686-w64-mingw32/8.1.0/../../../../i686-w64-mingw32/lib/../lib\libkernel32.a(dgzcs01255.o)
 .idata$4       0x6e0420dc        0x4 C:/Program Files (x86)/mingw-w64/i686-8.1.0-win32-dwarf-rt_v6-rev0/mingw32/bin/../lib/gcc/i686-w64-mingw32/8.1.0/../../../../i686-w64-mingw32/lib/../lib\libkernel32.a(dgzcs01279.o)
 .idata$4       0x6e0420e0        0x4 C:/Program Files (x86)/mingw-w64/i686-8.1.0-win32-dwarf-rt_v6-rev0/mingw32/bin/../lib/gcc/i686-w64-mingw32/8.1.0/../../../../i686-w64-mingw32/lib/../lib\libkernel32.a(dgzct.o)
 .idata$4       0x6e0420e4        0x0 C:/Program Files (x86)/mingw-w64/i686-8.1.0-win32-dwarf-rt_v6-rev0/mingw32/bin/../lib/gcc/i686-w64-mingw32/8.1.0/../../../../i686-w64-mingw32/lib/../lib\libmsvcr100.a(dwnfh.o)
 .idata$4       0x6e0420e4        0x4 C:/Program Files (x86)/mingw-w64/i686-8.1.0-win32-dwarf-rt_v6-rev0/mingw32/bin/../lib/gcc/i686-w64-mingw32/8.1.0/../../../../i686-w64-mingw32/lib/../lib\libmsvcr100.a(dwnfs00329.o)
 .idata$4       0x6e0420e8        0x4 C:/Program Files (x86)/mingw-w64/i686-8.1.0-win32-dwarf-rt_v6-rev0/mingw32/bin/../lib/gcc/i686-w64-mingw32/8.1.0/../../../../i686-w64-mingw32/lib/../lib\libmsvcr100.a(dwnfs00332.o)
 .idata$4       0x6e0420ec        0x4 C:/Program Files (x86)/mingw-w64/i686-8.1.0-win32-dwarf-rt_v6-rev0/mingw32/bin/../lib/gcc/i686-w64-mingw32/8.1.0/../../../../i686-w64-mingw32/lib/../lib\libmsvcr100.a(dwnfs00457.o)
 .idata$4       0x6e0420f0        0x4 C:/Program Files (x86)/mingw-w64/i686-8.1.0-win32-dwarf-rt_v6-rev0/mingw32/bin/../lib/gcc/i686-w64-mingw32/8.1.0/../../../../i686-w64-mingw32/lib/../lib\libmsvcr100.a(dwnfs00559.o)
 .idata$4       0x6e0420f4        0x4 C:/Program Files (x86)/mingw-w64/i686-8.1.0-win32-dwarf-rt_v6-rev0/mingw32/bin/../lib/gcc/i686-w64-mingw32/8.1.0/../../../../i686-w64-mingw32/lib/../lib\libmsvcr100.a(dwnfs00576.o)
 .idata$4       0x6e0420f8        0x4 C:/Program Files (x86)/mingw-w64/i686-8.1.0-win32-dwarf-rt_v6-rev0/mingw32/bin/../lib/gcc/i686-w64-mingw32/8.1.0/../../../../i686-w64-mingw32/lib/../lib\libmsvcr100.a(dwnfs00735.o)
 .idata$4       0x6e0420fc        0x4 C:/Program Files (x86)/mingw-w64/i686-8.1.0-win32-dwarf-rt_v6-rev0/mingw32/bin/../lib/gcc/i686-w64-mingw32/8.1.0/../../../../i686-w64-mingw32/lib/../lib\libmsvcr100.a(dwnfs00744.o)
 .idata$4       0x6e042100        0x4 C:/Program Files (x86)/mingw-w64/i686-8.1.0-win32-dwarf-rt_v6-rev0/mingw32/bin/../lib/gcc/i686-w64-mingw32/8.1.0/../../../../i686-w64-mingw32/lib/../lib\libmsvcr100.a(dwnfs00858.o)
 .idata$4       0x6e042104        0x4 C:/Program Files (x86)/mingw-w64/i686-8.1.0-win32-dwarf-rt_v6-rev0/mingw32/bin/../lib/gcc/i686-w64-mingw32/8.1.0/../../../../i686-w64-mingw32/lib/../lib\libmsvcr100.a(dwnfs01126.o)
 .idata$4       0x6e042108        0x4 C:/Program Files (x86)/mingw-w64/i686-8.1.0-win32-dwarf-rt_v6-rev0/mingw32/bin/../lib/gcc/i686-w64-mingw32/8.1.0/../../../../i686-w64-mingw32/lib/../lib\libmsvcr100.a(dwnfs01179.o)
 .idata$4       0x6e04210c        0x4 C:/Program Files (x86)/mingw-w64/i686-8.1.0-win32-dwarf-rt_v6-rev0/mingw32/bin/../lib/gcc/i686-w64-mingw32/8.1.0/../../../../i686-w64-mingw32/lib/../lib\libmsvcr100.a(dwnfs01276.o)
 .idata$4       0x6e042110        0x4 C:/Program Files (x86)/mingw-w64/i686-8.1.0-win32-dwarf-rt_v6-rev0/mingw32/bin/../lib/gcc/i686-w64-mingw32/8.1.0/../../../../i686-w64-mingw32/lib/../lib\libmsvcr100.a(dwnfs01314.o)
 .idata$4       0x6e042114        0x4 C:/Program Files (x86)/mingw-w64/i686-8.1.0-win32-dwarf-rt_v6-rev0/mingw32/bin/../lib/gcc/i686-w64-mingw32/8.1.0/../../../../i686-w64-mingw32/lib/../lib\libmsvcr100.a(dwnfs01426.o)
 .idata$4       0x6e042118        0x4 C:/Program Files (x86)/mingw-w64/i686-8.1.0-win32-dwarf-rt_v6-rev0/mingw32/bin/../lib/gcc/i686-w64-mingw32/8.1.0/../../../../i686-w64-mingw32/lib/../lib\libmsvcr100.a(dwnfs01456.o)
 .idata$4       0x6e04211c        0x4 C:/Program Files (x86)/mingw-w64/i686-8.1.0-win32-dwarf-rt_v6-rev0/mingw32/bin/../lib/gcc/i686-w64-mingw32/8.1.0/../../../../i686-w64-mingw32/lib/../lib\libmsvcr100.a(dwnfs01503.o)
 .idata$4       0x6e042120        0x4 C:/Program Files (x86)/mingw-w64/i686-8.1.0-win32-dwarf-rt_v6-rev0/mingw32/bin/../lib/gcc/i686-w64-mingw32/8.1.0/../../../../i686-w64-mingw32/lib/../lib\libmsvcr100.a(dwnfs01516.o)
 .idata$4       0x6e042124        0x4 C:/Program Files (x86)/mingw-w64/i686-8.1.0-win32-dwarf-rt_v6-rev0/mingw32/bin/../lib/gcc/i686-w64-mingw32/8.1.0/../../../../i686-w64-mingw32/lib/../lib\libmsvcr100.a(dwnfs01521.o)
 .idata$4       0x6e042128        0x4 C:/Program Files (x86)/mingw-w64/i686-8.1.0-win32-dwarf-rt_v6-rev0/mingw32/bin/../lib/gcc/i686-w64-mingw32/8.1.0/../../../../i686-w64-mingw32/lib/../lib\libmsvcr100.a(dwnfs01532.o)
 .idata$4       0x6e04212c        0x4 C:/Program Files (x86)/mingw-w64/i686-8.1.0-win32-dwarf-rt_v6-rev0/mingw32/bin/../lib/gcc/i686-w64-mingw32/8.1.0/../../../../i686-w64-mingw32/lib/../lib\libmsvcr100.a(dwnfs01543.o)
 .idata$4       0x6e042130        0x4 C:/Program Files (x86)/mingw-w64/i686-8.1.0-win32-dwarf-rt_v6-rev0/mingw32/bin/../lib/gcc/i686-w64-mingw32/8.1.0/../../../../i686-w64-mingw32/lib/../lib\libmsvcr100.a(dwnfs01545.o)
 .idata$4       0x6e042134        0x4 C:/Program Files (x86)/mingw-w64/i686-8.1.0-win32-dwarf-rt_v6-rev0/mingw32/bin/../lib/gcc/i686-w64-mingw32/8.1.0/../../../../i686-w64-mingw32/lib/../lib\libmsvcr100.a(dwnfs01547.o)
 .idata$4       0x6e042138        0x4 C:/Program Files (x86)/mingw-w64/i686-8.1.0-win32-dwarf-rt_v6-rev0/mingw32/bin/../lib/gcc/i686-w64-mingw32/8.1.0/../../../../i686-w64-mingw32/lib/../lib\libmsvcr100.a(dwnfs01548.o)
 .idata$4       0x6e04213c        0x4 C:/Program Files (x86)/mingw-w64/i686-8.1.0-win32-dwarf-rt_v6-rev0/mingw32/bin/../lib/gcc/i686-w64-mingw32/8.1.0/../../../../i686-w64-mingw32/lib/../lib\libmsvcr100.a(dwnfs01551.o)
 .idata$4       0x6e042140        0x4 C:/Program Files (x86)/mingw-w64/i686-8.1.0-win32-dwarf-rt_v6-rev0/mingw32/bin/../lib/gcc/i686-w64-mingw32/8.1.0/../../../../i686-w64-mingw32/lib/../lib\libmsvcr100.a(dwnfs01553.o)
 .idata$4       0x6e042144        0x4 C:/Program Files (x86)/mingw-w64/i686-8.1.0-win32-dwarf-rt_v6-rev0/mingw32/bin/../lib/gcc/i686-w64-mingw32/8.1.0/../../../../i686-w64-mingw32/lib/../lib\libmsvcr100.a(dwnfs01558.o)
 .idata$4       0x6e042148        0x4 C:/Program Files (x86)/mingw-w64/i686-8.1.0-win32-dwarf-rt_v6-rev0/mingw32/bin/../lib/gcc/i686-w64-mingw32/8.1.0/../../../../i686-w64-mingw32/lib/../lib\libmsvcr100.a(dwnfs01560.o)
 .idata$4       0x6e04214c        0x4 C:/Program Files (x86)/mingw-w64/i686-8.1.0-win32-dwarf-rt_v6-rev0/mingw32/bin/../lib/gcc/i686-w64-mingw32/8.1.0/../../../../i686-w64-mingw32/lib/../lib\libmsvcr100.a(dwnfs01563.o)
 .idata$4       0x6e042150        0x4 C:/Program Files (x86)/mingw-w64/i686-8.1.0-win32-dwarf-rt_v6-rev0/mingw32/bin/../lib/gcc/i686-w64-mingw32/8.1.0/../../../../i686-w64-mingw32/lib/../lib\libmsvcr100.a(dwnfs01565.o)
 .idata$4       0x6e042154        0x4 C:/Program Files (x86)/mingw-w64/i686-8.1.0-win32-dwarf-rt_v6-rev0/mingw32/bin/../lib/gcc/i686-w64-mingw32/8.1.0/../../../../i686-w64-mingw32/lib/../lib\libmsvcr100.a(dwnfs01607.o)
 .idata$4       0x6e042158        0x4 C:/Program Files (x86)/mingw-w64/i686-8.1.0-win32-dwarf-rt_v6-rev0/mingw32/bin/../lib/gcc/i686-w64-mingw32/8.1.0/../../../../i686-w64-mingw32/lib/../lib\libmsvcr100.a(dwnfs01611.o)
 .idata$4       0x6e04215c        0x4 C:/Program Files (x86)/mingw-w64/i686-8.1.0-win32-dwarf-rt_v6-rev0/mingw32/bin/../lib/gcc/i686-w64-mingw32/8.1.0/../../../../i686-w64-mingw32/lib/../lib\libmsvcr100.a(dwnfs01621.o)
 .idata$4       0x6e042160        0x4 C:/Program Files (x86)/mingw-w64/i686-8.1.0-win32-dwarf-rt_v6-rev0/mingw32/bin/../lib/gcc/i686-w64-mingw32/8.1.0/../../../../i686-w64-mingw32/lib/../lib\libmsvcr100.a(dwnfs01622.o)
 .idata$4       0x6e042164        0x4 C:/Program Files (x86)/mingw-w64/i686-8.1.0-win32-dwarf-rt_v6-rev0/mingw32/bin/../lib/gcc/i686-w64-mingw32/8.1.0/../../../../i686-w64-mingw32/lib/../lib\libmsvcr100.a(dwnfs01626.o)
 .idata$4       0x6e042168        0x4 C:/Program Files (x86)/mingw-w64/i686-8.1.0-win32-dwarf-rt_v6-rev0/mingw32/bin/../lib/gcc/i686-w64-mingw32/8.1.0/../../../../i686-w64-mingw32/lib/../lib\libmsvcr100.a(dwnfs01639.o)
 .idata$4       0x6e04216c        0x4 C:/Program Files (x86)/mingw-w64/i686-8.1.0-win32-dwarf-rt_v6-rev0/mingw32/bin/../lib/gcc/i686-w64-mingw32/8.1.0/../../../../i686-w64-mingw32/lib/../lib\libmsvcr100.a(dwnfs01642.o)
 .idata$4       0x6e042170        0x4 C:/Program Files (x86)/mingw-w64/i686-8.1.0-win32-dwarf-rt_v6-rev0/mingw32/bin/../lib/gcc/i686-w64-mingw32/8.1.0/../../../../i686-w64-mingw32/lib/../lib\libmsvcr100.a(dwnfs01645.o)
 .idata$4       0x6e042174        0x4 C:/Program Files (x86)/mingw-w64/i686-8.1.0-win32-dwarf-rt_v6-rev0/mingw32/bin/../lib/gcc/i686-w64-mingw32/8.1.0/../../../../i686-w64-mingw32/lib/../lib\libmsvcr100.a(dwnfs01654.o)
 .idata$4       0x6e042178        0x4 C:/Program Files (x86)/mingw-w64/i686-8.1.0-win32-dwarf-rt_v6-rev0/mingw32/bin/../lib/gcc/i686-w64-mingw32/8.1.0/../../../../i686-w64-mingw32/lib/../lib\libmsvcr100.a(dwnfs01663.o)
 .idata$4       0x6e04217c        0x4 C:/Program Files (x86)/mingw-w64/i686-8.1.0-win32-dwarf-rt_v6-rev0/mingw32/bin/../lib/gcc/i686-w64-mingw32/8.1.0/../../../../i686-w64-mingw32/lib/../lib\libmsvcr100.a(dwnfs01665.o)
 .idata$4       0x6e042180        0x4 C:/Program Files (x86)/mingw-w64/i686-8.1.0-win32-dwarf-rt_v6-rev0/mingw32/bin/../lib/gcc/i686-w64-mingw32/8.1.0/../../../../i686-w64-mingw32/lib/../lib\libmsvcr100.a(dwnfs01668.o)
 .idata$4       0x6e042184        0x4 C:/Program Files (x86)/mingw-w64/i686-8.1.0-win32-dwarf-rt_v6-rev0/mingw32/bin/../lib/gcc/i686-w64-mingw32/8.1.0/../../../../i686-w64-mingw32/lib/../lib\libmsvcr100.a(dwnfs01671.o)
 .idata$4       0x6e042188        0x4 C:/Program Files (x86)/mingw-w64/i686-8.1.0-win32-dwarf-rt_v6-rev0/mingw32/bin/../lib/gcc/i686-w64-mingw32/8.1.0/../../../../i686-w64-mingw32/lib/../lib\libmsvcr100.a(dwnfs01674.o)
 .idata$4       0x6e04218c        0x4 C:/Program Files (x86)/mingw-w64/i686-8.1.0-win32-dwarf-rt_v6-rev0/mingw32/bin/../lib/gcc/i686-w64-mingw32/8.1.0/../../../../i686-w64-mingw32/lib/../lib\libmsvcr100.a(dwnfs01675.o)
 .idata$4       0x6e042190        0x4 C:/Program Files (x86)/mingw-w64/i686-8.1.0-win32-dwarf-rt_v6-rev0/mingw32/bin/../lib/gcc/i686-w64-mingw32/8.1.0/../../../../i686-w64-mingw32/lib/../lib\libmsvcr100.a(dwnfs01681.o)
 .idata$4       0x6e042194        0x4 C:/Program Files (x86)/mingw-w64/i686-8.1.0-win32-dwarf-rt_v6-rev0/mingw32/bin/../lib/gcc/i686-w64-mingw32/8.1.0/../../../../i686-w64-mingw32/lib/../lib\libmsvcr100.a(dwnfs01699.o)
 .idata$4       0x6e042198        0x4 C:/Program Files (x86)/mingw-w64/i686-8.1.0-win32-dwarf-rt_v6-rev0/mingw32/bin/../lib/gcc/i686-w64-mingw32/8.1.0/../../../../i686-w64-mingw32/lib/../lib\libmsvcr100.a(dwnfs01704.o)
 .idata$4       0x6e04219c        0x4 C:/Program Files (x86)/mingw-w64/i686-8.1.0-win32-dwarf-rt_v6-rev0/mingw32/bin/../lib/gcc/i686-w64-mingw32/8.1.0/../../../../i686-w64-mingw32/lib/../lib\libmsvcr100.a(dwnfs01722.o)
 .idata$4       0x6e0421a0        0x4 C:/Program Files (x86)/mingw-w64/i686-8.1.0-win32-dwarf-rt_v6-rev0/mingw32/bin/../lib/gcc/i686-w64-mingw32/8.1.0/../../../../i686-w64-mingw32/lib/../lib\libmsvcr100.a(dwnfs01726.o)
 .idata$4       0x6e0421a4        0x4 C:/Program Files (x86)/mingw-w64/i686-8.1.0-win32-dwarf-rt_v6-rev0/mingw32/bin/../lib/gcc/i686-w64-mingw32/8.1.0/../../../../i686-w64-mingw32/lib/../lib\libmsvcr100.a(dwnft.o)
 .idata$4       0x6e0421a8        0x0 C:/Program Files (x86)/mingw-w64/i686-8.1.0-win32-dwarf-rt_v6-rev0/mingw32/bin/../lib/gcc/i686-w64-mingw32/8.1.0/../../../../i686-w64-mingw32/lib/../lib\libuser32.a(dmceh.o)
 .idata$4       0x6e0421a8        0x4 C:/Program Files (x86)/mingw-w64/i686-8.1.0-win32-dwarf-rt_v6-rev0/mingw32/bin/../lib/gcc/i686-w64-mingw32/8.1.0/../../../../i686-w64-mingw32/lib/../lib\libuser32.a(dmces00595.o)
 .idata$4       0x6e0421ac        0x4 C:/Program Files (x86)/mingw-w64/i686-8.1.0-win32-dwarf-rt_v6-rev0/mingw32/bin/../lib/gcc/i686-w64-mingw32/8.1.0/../../../../i686-w64-mingw32/lib/../lib\libuser32.a(dmcet.o)
                0x6e0421b0                __IAT_start__ = .
 SORT_BY_NAME(*)(.idata$5)
 .idata$5       0x6e0421b0        0x0 C:/Program Files (x86)/mingw-w64/i686-8.1.0-win32-dwarf-rt_v6-rev0/mingw32/bin/../lib/gcc/i686-w64-mingw32/8.1.0/../../../../i686-w64-mingw32/lib/../lib\libkernel32.a(dgzch.o)
 .idata$5       0x6e0421b0        0x4 C:/Program Files (x86)/mingw-w64/i686-8.1.0-win32-dwarf-rt_v6-rev0/mingw32/bin/../lib/gcc/i686-w64-mingw32/8.1.0/../../../../i686-w64-mingw32/lib/../lib\libkernel32.a(dgzcs00083.o)
                0x6e0421b0                _imp__CloseHandle@4
 .idata$5       0x6e0421b4        0x4 C:/Program Files (x86)/mingw-w64/i686-8.1.0-win32-dwarf-rt_v6-rev0/mingw32/bin/../lib/gcc/i686-w64-mingw32/8.1.0/../../../../i686-w64-mingw32/lib/../lib\libkernel32.a(dgzcs00178.o)
                0x6e0421b4                _imp__CreateSemaphoreW@16
 .idata$5       0x6e0421b8        0x4 C:/Program Files (x86)/mingw-w64/i686-8.1.0-win32-dwarf-rt_v6-rev0/mingw32/bin/../lib/gcc/i686-w64-mingw32/8.1.0/../../../../i686-w64-mingw32/lib/../lib\libkernel32.a(dgzcs00214.o)
                0x6e0421b8                _imp__DeleteCriticalSection@4
 .idata$5       0x6e0421bc        0x4 C:/Program Files (x86)/mingw-w64/i686-8.1.0-win32-dwarf-rt_v6-rev0/mingw32/bin/../lib/gcc/i686-w64-mingw32/8.1.0/../../../../i686-w64-mingw32/lib/../lib\libkernel32.a(dgzcs00242.o)
                0x6e0421bc                _imp__EnterCriticalSection@4
 .idata$5       0x6e0421c0        0x4 C:/Program Files (x86)/mingw-w64/i686-8.1.0-win32-dwarf-rt_v6-rev0/mingw32/bin/../lib/gcc/i686-w64-mingw32/8.1.0/../../../../i686-w64-mingw32/lib/../lib\libkernel32.a(dgzcs00359.o)
                0x6e0421c0                _imp__FreeLibrary@4
 .idata$5       0x6e0421c4        0x4 C:/Program Files (x86)/mingw-w64/i686-8.1.0-win32-dwarf-rt_v6-rev0/mingw32/bin/../lib/gcc/i686-w64-mingw32/8.1.0/../../../../i686-w64-mingw32/lib/../lib\libkernel32.a(dgzcs00455.o)
                0x6e0421c4                _imp__GetCurrentProcess@0
 .idata$5       0x6e0421c8        0x4 C:/Program Files (x86)/mingw-w64/i686-8.1.0-win32-dwarf-rt_v6-rev0/mingw32/bin/../lib/gcc/i686-w64-mingw32/8.1.0/../../../../i686-w64-mingw32/lib/../lib\libkernel32.a(dgzcs00456.o)
                0x6e0421c8                _imp__GetCurrentProcessId@0
 .idata$5       0x6e0421cc        0x4 C:/Program Files (x86)/mingw-w64/i686-8.1.0-win32-dwarf-rt_v6-rev0/mingw32/bin/../lib/gcc/i686-w64-mingw32/8.1.0/../../../../i686-w64-mingw32/lib/../lib\libkernel32.a(dgzcs00460.o)
                0x6e0421cc                _imp__GetCurrentThreadId@0
 .idata$5       0x6e0421d0        0x4 C:/Program Files (x86)/mingw-w64/i686-8.1.0-win32-dwarf-rt_v6-rev0/mingw32/bin/../lib/gcc/i686-w64-mingw32/8.1.0/../../../../i686-w64-mingw32/lib/../lib\libkernel32.a(dgzcs00518.o)
                0x6e0421d0                _imp__GetLastError@0
 .idata$5       0x6e0421d4        0x4 C:/Program Files (x86)/mingw-w64/i686-8.1.0-win32-dwarf-rt_v6-rev0/mingw32/bin/../lib/gcc/i686-w64-mingw32/8.1.0/../../../../i686-w64-mingw32/lib/../lib\libkernel32.a(dgzcs00535.o)
                0x6e0421d4                _imp__GetModuleFileNameW@12
 .idata$5       0x6e0421d8        0x4 C:/Program Files (x86)/mingw-w64/i686-8.1.0-win32-dwarf-rt_v6-rev0/mingw32/bin/../lib/gcc/i686-w64-mingw32/8.1.0/../../../../i686-w64-mingw32/lib/../lib\libkernel32.a(dgzcs00536.o)
                0x6e0421d8                _imp__GetModuleHandleA@4
 .idata$5       0x6e0421dc        0x4 C:/Program Files (x86)/mingw-w64/i686-8.1.0-win32-dwarf-rt_v6-rev0/mingw32/bin/../lib/gcc/i686-w64-mingw32/8.1.0/../../../../i686-w64-mingw32/lib/../lib\libkernel32.a(dgzcs00584.o)
                0x6e0421dc                _imp__GetProcAddress@8
 .idata$5       0x6e0421e0        0x4 C:/Program Files (x86)/mingw-w64/i686-8.1.0-win32-dwarf-rt_v6-rev0/mingw32/bin/../lib/gcc/i686-w64-mingw32/8.1.0/../../../../i686-w64-mingw32/lib/../lib\libkernel32.a(dgzcs00638.o)
                0x6e0421e0                _imp__GetSystemTimeAsFileTime@4
 .idata$5       0x6e0421e4        0x4 C:/Program Files (x86)/mingw-w64/i686-8.1.0-win32-dwarf-rt_v6-rev0/mingw32/bin/../lib/gcc/i686-w64-mingw32/8.1.0/../../../../i686-w64-mingw32/lib/../lib\libkernel32.a(dgzcs00666.o)
                0x6e0421e4                _imp__GetTickCount@0
 .idata$5       0x6e0421e8        0x4 C:/Program Files (x86)/mingw-w64/i686-8.1.0-win32-dwarf-rt_v6-rev0/mingw32/bin/../lib/gcc/i686-w64-mingw32/8.1.0/../../../../i686-w64-mingw32/lib/../lib\libkernel32.a(dgzcs00750.o)
                0x6e0421e8                _imp__InitializeCriticalSection@4
 .idata$5       0x6e0421ec        0x4 C:/Program Files (x86)/mingw-w64/i686-8.1.0-win32-dwarf-rt_v6-rev0/mingw32/bin/../lib/gcc/i686-w64-mingw32/8.1.0/../../../../i686-w64-mingw32/lib/../lib\libkernel32.a(dgzcs00778.o)
                0x6e0421ec                _imp__IsDBCSLeadByteEx@8
 .idata$5       0x6e0421f0        0x4 C:/Program Files (x86)/mingw-w64/i686-8.1.0-win32-dwarf-rt_v6-rev0/mingw32/bin/../lib/gcc/i686-w64-mingw32/8.1.0/../../../../i686-w64-mingw32/lib/../lib\libkernel32.a(dgzcs00836.o)
                0x6e0421f0                _imp__LeaveCriticalSection@4
 .idata$5       0x6e0421f4        0x4 C:/Program Files (x86)/mingw-w64/i686-8.1.0-win32-dwarf-rt_v6-rev0/mingw32/bin/../lib/gcc/i686-w64-mingw32/8.1.0/../../../../i686-w64-mingw32/lib/../lib\libkernel32.a(dgzcs00839.o)
                0x6e0421f4                _imp__LoadLibraryA@4
 .idata$5       0x6e0421f8        0x4 C:/Program Files (x86)/mingw-w64/i686-8.1.0-win32-dwarf-rt_v6-rev0/mingw32/bin/../lib/gcc/i686-w64-mingw32/8.1.0/../../../../i686-w64-mingw32/lib/../lib\libkernel32.a(dgzcs00884.o)
                0x6e0421f8                _imp__MultiByteToWideChar@24
 .idata$5       0x6e0421fc        0x4 C:/Program Files (x86)/mingw-w64/i686-8.1.0-win32-dwarf-rt_v6-rev0/mingw32/bin/../lib/gcc/i686-w64-mingw32/8.1.0/../../../../i686-w64-mingw32/lib/../lib\libkernel32.a(dgzcs00949.o)
                0x6e0421fc                _imp__QueryPerformanceCounter@4
 .idata$5       0x6e042200        0x4 C:/Program Files (x86)/mingw-w64/i686-8.1.0-win32-dwarf-rt_v6-rev0/mingw32/bin/../lib/gcc/i686-w64-mingw32/8.1.0/../../../../i686-w64-mingw32/lib/../lib\libkernel32.a(dgzcs00997.o)
                0x6e042200                _imp__ReleaseSemaphore@12
 .idata$5       0x6e042204        0x4 C:/Program Files (x86)/mingw-w64/i686-8.1.0-win32-dwarf-rt_v6-rev0/mingw32/bin/../lib/gcc/i686-w64-mingw32/8.1.0/../../../../i686-w64-mingw32/lib/../lib\libkernel32.a(dgzcs01114.o)
                0x6e042204                _imp__SetLastError@4
 .idata$5       0x6e042208        0x4 C:/Program Files (x86)/mingw-w64/i686-8.1.0-win32-dwarf-rt_v6-rev0/mingw32/bin/../lib/gcc/i686-w64-mingw32/8.1.0/../../../../i686-w64-mingw32/lib/../lib\libkernel32.a(dgzcs01163.o)
                0x6e042208                _imp__SetUnhandledExceptionFilter@4
 .idata$5       0x6e04220c        0x4 C:/Program Files (x86)/mingw-w64/i686-8.1.0-win32-dwarf-rt_v6-rev0/mingw32/bin/../lib/gcc/i686-w64-mingw32/8.1.0/../../../../i686-w64-mingw32/lib/../lib\libkernel32.a(dgzcs01176.o)
                0x6e04220c                _imp__Sleep@4
 .idata$5       0x6e042210        0x4 C:/Program Files (x86)/mingw-w64/i686-8.1.0-win32-dwarf-rt_v6-rev0/mingw32/bin/../lib/gcc/i686-w64-mingw32/8.1.0/../../../../i686-w64-mingw32/lib/../lib\libkernel32.a(dgzcs01190.o)
                0x6e042210                _imp__TerminateProcess@8
 .idata$5       0x6e042214        0x4 C:/Program Files (x86)/mingw-w64/i686-8.1.0-win32-dwarf-rt_v6-rev0/mingw32/bin/../lib/gcc/i686-w64-mingw32/8.1.0/../../../../i686-w64-mingw32/lib/../lib\libkernel32.a(dgzcs01195.o)
                0x6e042214                _imp__TlsAlloc@0
 .idata$5       0x6e042218        0x4 C:/Program Files (x86)/mingw-w64/i686-8.1.0-win32-dwarf-rt_v6-rev0/mingw32/bin/../lib/gcc/i686-w64-mingw32/8.1.0/../../../../i686-w64-mingw32/lib/../lib\libkernel32.a(dgzcs01196.o)
                0x6e042218                _imp__TlsFree@4
 .idata$5       0x6e04221c        0x4 C:/Program Files (x86)/mingw-w64/i686-8.1.0-win32-dwarf-rt_v6-rev0/mingw32/bin/../lib/gcc/i686-w64-mingw32/8.1.0/../../../../i686-w64-mingw32/lib/../lib\libkernel32.a(dgzcs01197.o)
                0x6e04221c                _imp__TlsGetValue@4
 .idata$5       0x6e042220        0x4 C:/Program Files (x86)/mingw-w64/i686-8.1.0-win32-dwarf-rt_v6-rev0/mingw32/bin/../lib/gcc/i686-w64-mingw32/8.1.0/../../../../i686-w64-mingw32/lib/../lib\libkernel32.a(dgzcs01198.o)
                0x6e042220                _imp__TlsSetValue@8
 .idata$5       0x6e042224        0x4 C:/Program Files (x86)/mingw-w64/i686-8.1.0-win32-dwarf-rt_v6-rev0/mingw32/bin/../lib/gcc/i686-w64-mingw32/8.1.0/../../../../i686-w64-mingw32/lib/../lib\libkernel32.a(dgzcs01210.o)
                0x6e042224                _imp__UnhandledExceptionFilter@4
 .idata$5       0x6e042228        0x4 C:/Program Files (x86)/mingw-w64/i686-8.1.0-win32-dwarf-rt_v6-rev0/mingw32/bin/../lib/gcc/i686-w64-mingw32/8.1.0/../../../../i686-w64-mingw32/lib/../lib\libkernel32.a(dgzcs01233.o)
                0x6e042228                _imp__VirtualAlloc@16
 .idata$5       0x6e04222c        0x4 C:/Program Files (x86)/mingw-w64/i686-8.1.0-win32-dwarf-rt_v6-rev0/mingw32/bin/../lib/gcc/i686-w64-mingw32/8.1.0/../../../../i686-w64-mingw32/lib/../lib\libkernel32.a(dgzcs01239.o)
                0x6e04222c                _imp__VirtualFree@12
 .idata$5       0x6e042230        0x4 C:/Program Files (x86)/mingw-w64/i686-8.1.0-win32-dwarf-rt_v6-rev0/mingw32/bin/../lib/gcc/i686-w64-mingw32/8.1.0/../../../../i686-w64-mingw32/lib/../lib\libkernel32.a(dgzcs01243.o)
                0x6e042230                _imp__VirtualProtect@16
 .idata$5       0x6e042234        0x4 C:/Program Files (x86)/mingw-w64/i686-8.1.0-win32-dwarf-rt_v6-rev0/mingw32/bin/../lib/gcc/i686-w64-mingw32/8.1.0/../../../../i686-w64-mingw32/lib/../lib\libkernel32.a(dgzcs01246.o)
                0x6e042234                _imp__VirtualQuery@12
 .idata$5       0x6e042238        0x4 C:/Program Files (x86)/mingw-w64/i686-8.1.0-win32-dwarf-rt_v6-rev0/mingw32/bin/../lib/gcc/i686-w64-mingw32/8.1.0/../../../../i686-w64-mingw32/lib/../lib\libkernel32.a(dgzcs01255.o)
                0x6e042238                _imp__WaitForSingleObject@8
 .idata$5       0x6e04223c        0x4 C:/Program Files (x86)/mingw-w64/i686-8.1.0-win32-dwarf-rt_v6-rev0/mingw32/bin/../lib/gcc/i686-w64-mingw32/8.1.0/../../../../i686-w64-mingw32/lib/../lib\libkernel32.a(dgzcs01279.o)
                0x6e04223c                _imp__WideCharToMultiByte@32
 .idata$5       0x6e042240        0x4 C:/Program Files (x86)/mingw-w64/i686-8.1.0-win32-dwarf-rt_v6-rev0/mingw32/bin/../lib/gcc/i686-w64-mingw32/8.1.0/../../../../i686-w64-mingw32/lib/../lib\libkernel32.a(dgzct.o)
 .idata$5       0x6e042244        0x0 C:/Program Files (x86)/mingw-w64/i686-8.1.0-win32-dwarf-rt_v6-rev0/mingw32/bin/../lib/gcc/i686-w64-mingw32/8.1.0/../../../../i686-w64-mingw32/lib/../lib\libmsvcr100.a(dwnfh.o)
 .idata$5       0x6e042244        0x4 C:/Program Files (x86)/mingw-w64/i686-8.1.0-win32-dwarf-rt_v6-rev0/mingw32/bin/../lib/gcc/i686-w64-mingw32/8.1.0/../../../../i686-w64-mingw32/lib/../lib\libmsvcr100.a(dwnfs00329.o)
                0x6e042244                _imp_____lc_codepage_func
 .idata$5       0x6e042248        0x4 C:/Program Files (x86)/mingw-w64/i686-8.1.0-win32-dwarf-rt_v6-rev0/mingw32/bin/../lib/gcc/i686-w64-mingw32/8.1.0/../../../../i686-w64-mingw32/lib/../lib\libmsvcr100.a(dwnfs00332.o)
                0x6e042248                _imp_____mb_cur_max_func
 .idata$5       0x6e04224c        0x4 C:/Program Files (x86)/mingw-w64/i686-8.1.0-win32-dwarf-rt_v6-rev0/mingw32/bin/../lib/gcc/i686-w64-mingw32/8.1.0/../../../../i686-w64-mingw32/lib/../lib\libmsvcr100.a(dwnfs00457.o)
                0x6e04224c                _imp___amsg_exit
 .idata$5       0x6e042250        0x4 C:/Program Files (x86)/mingw-w64/i686-8.1.0-win32-dwarf-rt_v6-rev0/mingw32/bin/../lib/gcc/i686-w64-mingw32/8.1.0/../../../../i686-w64-mingw32/lib/../lib\libmsvcr100.a(dwnfs00559.o)
                0x6e042250                _imp___errno
 .idata$5       0x6e042254        0x4 C:/Program Files (x86)/mingw-w64/i686-8.1.0-win32-dwarf-rt_v6-rev0/mingw32/bin/../lib/gcc/i686-w64-mingw32/8.1.0/../../../../i686-w64-mingw32/lib/../lib\libmsvcr100.a(dwnfs00576.o)
                0x6e042254                _imp___exit
 .idata$5       0x6e042258        0x4 C:/Program Files (x86)/mingw-w64/i686-8.1.0-win32-dwarf-rt_v6-rev0/mingw32/bin/../lib/gcc/i686-w64-mingw32/8.1.0/../../../../i686-w64-mingw32/lib/../lib\libmsvcr100.a(dwnfs00735.o)
                0x6e042258                _imp___initterm
 .idata$5       0x6e04225c        0x4 C:/Program Files (x86)/mingw-w64/i686-8.1.0-win32-dwarf-rt_v6-rev0/mingw32/bin/../lib/gcc/i686-w64-mingw32/8.1.0/../../../../i686-w64-mingw32/lib/../lib\libmsvcr100.a(dwnfs00744.o)
                0x6e04225c                _imp___iob
 .idata$5       0x6e042260        0x4 C:/Program Files (x86)/mingw-w64/i686-8.1.0-win32-dwarf-rt_v6-rev0/mingw32/bin/../lib/gcc/i686-w64-mingw32/8.1.0/../../../../i686-w64-mingw32/lib/../lib\libmsvcr100.a(dwnfs00858.o)
                0x6e042260                _imp___lock
 .idata$5       0x6e042264        0x4 C:/Program Files (x86)/mingw-w64/i686-8.1.0-win32-dwarf-rt_v6-rev0/mingw32/bin/../lib/gcc/i686-w64-mingw32/8.1.0/../../../../i686-w64-mingw32/lib/../lib\libmsvcr100.a(dwnfs01126.o)
                0x6e042264                _imp___snwprintf
 .idata$5       0x6e042268        0x4 C:/Program Files (x86)/mingw-w64/i686-8.1.0-win32-dwarf-rt_v6-rev0/mingw32/bin/../lib/gcc/i686-w64-mingw32/8.1.0/../../../../i686-w64-mingw32/lib/../lib\libmsvcr100.a(dwnfs01179.o)
                0x6e042268                _imp__stricmp
 .idata$5       0x6e04226c        0x4 C:/Program Files (x86)/mingw-w64/i686-8.1.0-win32-dwarf-rt_v6-rev0/mingw32/bin/../lib/gcc/i686-w64-mingw32/8.1.0/../../../../i686-w64-mingw32/lib/../lib\libmsvcr100.a(dwnfs01276.o)
                0x6e04226c                _imp___unlock
 .idata$5       0x6e042270        0x4 C:/Program Files (x86)/mingw-w64/i686-8.1.0-win32-dwarf-rt_v6-rev0/mingw32/bin/../lib/gcc/i686-w64-mingw32/8.1.0/../../../../i686-w64-mingw32/lib/../lib\libmsvcr100.a(dwnfs01314.o)
                0x6e042270                _imp___vsnprintf
 .idata$5       0x6e042274        0x4 C:/Program Files (x86)/mingw-w64/i686-8.1.0-win32-dwarf-rt_v6-rev0/mingw32/bin/../lib/gcc/i686-w64-mingw32/8.1.0/../../../../i686-w64-mingw32/lib/../lib\libmsvcr100.a(dwnfs01426.o)
                0x6e042274                _imp___wfopen
 .idata$5       0x6e042278        0x4 C:/Program Files (x86)/mingw-w64/i686-8.1.0-win32-dwarf-rt_v6-rev0/mingw32/bin/../lib/gcc/i686-w64-mingw32/8.1.0/../../../../i686-w64-mingw32/lib/../lib\libmsvcr100.a(dwnfs01456.o)
                0x6e042278                _imp__write
 .idata$5       0x6e04227c        0x4 C:/Program Files (x86)/mingw-w64/i686-8.1.0-win32-dwarf-rt_v6-rev0/mingw32/bin/../lib/gcc/i686-w64-mingw32/8.1.0/../../../../i686-w64-mingw32/lib/../lib\libmsvcr100.a(dwnfs01503.o)
                0x6e04227c                _imp__abort
 .idata$5       0x6e042280        0x4 C:/Program Files (x86)/mingw-w64/i686-8.1.0-win32-dwarf-rt_v6-rev0/mingw32/bin/../lib/gcc/i686-w64-mingw32/8.1.0/../../../../i686-w64-mingw32/lib/../lib\libmsvcr100.a(dwnfs01516.o)
                0x6e042280                _imp__atoi
 .idata$5       0x6e042284        0x4 C:/Program Files (x86)/mingw-w64/i686-8.1.0-win32-dwarf-rt_v6-rev0/mingw32/bin/../lib/gcc/i686-w64-mingw32/8.1.0/../../../../i686-w64-mingw32/lib/../lib\libmsvcr100.a(dwnfs01521.o)
                0x6e042284                _imp__calloc
 .idata$5       0x6e042288        0x4 C:/Program Files (x86)/mingw-w64/i686-8.1.0-win32-dwarf-rt_v6-rev0/mingw32/bin/../lib/gcc/i686-w64-mingw32/8.1.0/../../../../i686-w64-mingw32/lib/../lib\libmsvcr100.a(dwnfs01532.o)
                0x6e042288                _imp__fclose
 .idata$5       0x6e04228c        0x4 C:/Program Files (x86)/mingw-w64/i686-8.1.0-win32-dwarf-rt_v6-rev0/mingw32/bin/../lib/gcc/i686-w64-mingw32/8.1.0/../../../../i686-w64-mingw32/lib/../lib\libmsvcr100.a(dwnfs01543.o)
                0x6e04228c                _imp__fopen
 .idata$5       0x6e042290        0x4 C:/Program Files (x86)/mingw-w64/i686-8.1.0-win32-dwarf-rt_v6-rev0/mingw32/bin/../lib/gcc/i686-w64-mingw32/8.1.0/../../../../i686-w64-mingw32/lib/../lib\libmsvcr100.a(dwnfs01545.o)
                0x6e042290                _imp__fprintf
 .idata$5       0x6e042294        0x4 C:/Program Files (x86)/mingw-w64/i686-8.1.0-win32-dwarf-rt_v6-rev0/mingw32/bin/../lib/gcc/i686-w64-mingw32/8.1.0/../../../../i686-w64-mingw32/lib/../lib\libmsvcr100.a(dwnfs01547.o)
                0x6e042294                _imp__fputc
 .idata$5       0x6e042298        0x4 C:/Program Files (x86)/mingw-w64/i686-8.1.0-win32-dwarf-rt_v6-rev0/mingw32/bin/../lib/gcc/i686-w64-mingw32/8.1.0/../../../../i686-w64-mingw32/lib/../lib\libmsvcr100.a(dwnfs01548.o)
                0x6e042298                _imp__fputs
 .idata$5       0x6e04229c        0x4 C:/Program Files (x86)/mingw-w64/i686-8.1.0-win32-dwarf-rt_v6-rev0/mingw32/bin/../lib/gcc/i686-w64-mingw32/8.1.0/../../../../i686-w64-mingw32/lib/../lib\libmsvcr100.a(dwnfs01551.o)
                0x6e04229c                _imp__fread
 .idata$5       0x6e0422a0        0x4 C:/Program Files (x86)/mingw-w64/i686-8.1.0-win32-dwarf-rt_v6-rev0/mingw32/bin/../lib/gcc/i686-w64-mingw32/8.1.0/../../../../i686-w64-mingw32/lib/../lib\libmsvcr100.a(dwnfs01553.o)
                0x6e0422a0                _imp__free
 .idata$5       0x6e0422a4        0x4 C:/Program Files (x86)/mingw-w64/i686-8.1.0-win32-dwarf-rt_v6-rev0/mingw32/bin/../lib/gcc/i686-w64-mingw32/8.1.0/../../../../i686-w64-mingw32/lib/../lib\libmsvcr100.a(dwnfs01558.o)
                0x6e0422a4                _imp__fseek
 .idata$5       0x6e0422a8        0x4 C:/Program Files (x86)/mingw-w64/i686-8.1.0-win32-dwarf-rt_v6-rev0/mingw32/bin/../lib/gcc/i686-w64-mingw32/8.1.0/../../../../i686-w64-mingw32/lib/../lib\libmsvcr100.a(dwnfs01560.o)
                0x6e0422a8                _imp__ftell
 .idata$5       0x6e0422ac        0x4 C:/Program Files (x86)/mingw-w64/i686-8.1.0-win32-dwarf-rt_v6-rev0/mingw32/bin/../lib/gcc/i686-w64-mingw32/8.1.0/../../../../i686-w64-mingw32/lib/../lib\libmsvcr100.a(dwnfs01563.o)
                0x6e0422ac                _imp__fwprintf
 .idata$5       0x6e0422b0        0x4 C:/Program Files (x86)/mingw-w64/i686-8.1.0-win32-dwarf-rt_v6-rev0/mingw32/bin/../lib/gcc/i686-w64-mingw32/8.1.0/../../../../i686-w64-mingw32/lib/../lib\libmsvcr100.a(dwnfs01565.o)
                0x6e0422b0                _imp__fwrite
 .idata$5       0x6e0422b4        0x4 C:/Program Files (x86)/mingw-w64/i686-8.1.0-win32-dwarf-rt_v6-rev0/mingw32/bin/../lib/gcc/i686-w64-mingw32/8.1.0/../../../../i686-w64-mingw32/lib/../lib\libmsvcr100.a(dwnfs01607.o)
                0x6e0422b4                _imp__localeconv
 .idata$5       0x6e0422b8        0x4 C:/Program Files (x86)/mingw-w64/i686-8.1.0-win32-dwarf-rt_v6-rev0/mingw32/bin/../lib/gcc/i686-w64-mingw32/8.1.0/../../../../i686-w64-mingw32/lib/../lib\libmsvcr100.a(dwnfs01611.o)
                0x6e0422b8                _imp__malloc
 .idata$5       0x6e0422bc        0x4 C:/Program Files (x86)/mingw-w64/i686-8.1.0-win32-dwarf-rt_v6-rev0/mingw32/bin/../lib/gcc/i686-w64-mingw32/8.1.0/../../../../i686-w64-mingw32/lib/../lib\libmsvcr100.a(dwnfs01621.o)
                0x6e0422bc                _imp__memcmp
 .idata$5       0x6e0422c0        0x4 C:/Program Files (x86)/mingw-w64/i686-8.1.0-win32-dwarf-rt_v6-rev0/mingw32/bin/../lib/gcc/i686-w64-mingw32/8.1.0/../../../../i686-w64-mingw32/lib/../lib\libmsvcr100.a(dwnfs01622.o)
                0x6e0422c0                _imp__memcpy
 .idata$5       0x6e0422c4        0x4 C:/Program Files (x86)/mingw-w64/i686-8.1.0-win32-dwarf-rt_v6-rev0/mingw32/bin/../lib/gcc/i686-w64-mingw32/8.1.0/../../../../i686-w64-mingw32/lib/../lib\libmsvcr100.a(dwnfs01626.o)
                0x6e0422c4                _imp__memset
 .idata$5       0x6e0422c8        0x4 C:/Program Files (x86)/mingw-w64/i686-8.1.0-win32-dwarf-rt_v6-rev0/mingw32/bin/../lib/gcc/i686-w64-mingw32/8.1.0/../../../../i686-w64-mingw32/lib/../lib\libmsvcr100.a(dwnfs01639.o)
                0x6e0422c8                _imp__raise
 .idata$5       0x6e0422cc        0x4 C:/Program Files (x86)/mingw-w64/i686-8.1.0-win32-dwarf-rt_v6-rev0/mingw32/bin/../lib/gcc/i686-w64-mingw32/8.1.0/../../../../i686-w64-mingw32/lib/../lib\libmsvcr100.a(dwnfs01642.o)
                0x6e0422cc                _imp__realloc
 .idata$5       0x6e0422d0        0x4 C:/Program Files (x86)/mingw-w64/i686-8.1.0-win32-dwarf-rt_v6-rev0/mingw32/bin/../lib/gcc/i686-w64-mingw32/8.1.0/../../../../i686-w64-mingw32/lib/../lib\libmsvcr100.a(dwnfs01645.o)
                0x6e0422d0                _imp__rewind
 .idata$5       0x6e0422d4        0x4 C:/Program Files (x86)/mingw-w64/i686-8.1.0-win32-dwarf-rt_v6-rev0/mingw32/bin/../lib/gcc/i686-w64-mingw32/8.1.0/../../../../i686-w64-mingw32/lib/../lib\libmsvcr100.a(dwnfs01654.o)
                0x6e0422d4                _imp__sprintf
 .idata$5       0x6e0422d8        0x4 C:/Program Files (x86)/mingw-w64/i686-8.1.0-win32-dwarf-rt_v6-rev0/mingw32/bin/../lib/gcc/i686-w64-mingw32/8.1.0/../../../../i686-w64-mingw32/lib/../lib\libmsvcr100.a(dwnfs01663.o)
                0x6e0422d8                _imp__strcmp
 .idata$5       0x6e0422dc        0x4 C:/Program Files (x86)/mingw-w64/i686-8.1.0-win32-dwarf-rt_v6-rev0/mingw32/bin/../lib/gcc/i686-w64-mingw32/8.1.0/../../../../i686-w64-mingw32/lib/../lib\libmsvcr100.a(dwnfs01665.o)
                0x6e0422dc                _imp__strcpy
 .idata$5       0x6e0422e0        0x4 C:/Program Files (x86)/mingw-w64/i686-8.1.0-win32-dwarf-rt_v6-rev0/mingw32/bin/../lib/gcc/i686-w64-mingw32/8.1.0/../../../../i686-w64-mingw32/lib/../lib\libmsvcr100.a(dwnfs01668.o)
                0x6e0422e0                _imp__strerror
 .idata$5       0x6e0422e4        0x4 C:/Program Files (x86)/mingw-w64/i686-8.1.0-win32-dwarf-rt_v6-rev0/mingw32/bin/../lib/gcc/i686-w64-mingw32/8.1.0/../../../../i686-w64-mingw32/lib/../lib\libmsvcr100.a(dwnfs01671.o)
                0x6e0422e4                _imp__strlen
 .idata$5       0x6e0422e8        0x4 C:/Program Files (x86)/mingw-w64/i686-8.1.0-win32-dwarf-rt_v6-rev0/mingw32/bin/../lib/gcc/i686-w64-mingw32/8.1.0/../../../../i686-w64-mingw32/lib/../lib\libmsvcr100.a(dwnfs01674.o)
                0x6e0422e8                _imp__strncmp
 .idata$5       0x6e0422ec        0x4 C:/Program Files (x86)/mingw-w64/i686-8.1.0-win32-dwarf-rt_v6-rev0/mingw32/bin/../lib/gcc/i686-w64-mingw32/8.1.0/../../../../i686-w64-mingw32/lib/../lib\libmsvcr100.a(dwnfs01675.o)
                0x6e0422ec                _imp__strncpy
 .idata$5       0x6e0422f0        0x4 C:/Program Files (x86)/mingw-w64/i686-8.1.0-win32-dwarf-rt_v6-rev0/mingw32/bin/../lib/gcc/i686-w64-mingw32/8.1.0/../../../../i686-w64-mingw32/lib/../lib\libmsvcr100.a(dwnfs01681.o)
                0x6e0422f0                _imp__strstr
 .idata$5       0x6e0422f4        0x4 C:/Program Files (x86)/mingw-w64/i686-8.1.0-win32-dwarf-rt_v6-rev0/mingw32/bin/../lib/gcc/i686-w64-mingw32/8.1.0/../../../../i686-w64-mingw32/lib/../lib\libmsvcr100.a(dwnfs01699.o)
                0x6e0422f4                _imp__toupper
 .idata$5       0x6e0422f8        0x4 C:/Program Files (x86)/mingw-w64/i686-8.1.0-win32-dwarf-rt_v6-rev0/mingw32/bin/../lib/gcc/i686-w64-mingw32/8.1.0/../../../../i686-w64-mingw32/lib/../lib\libmsvcr100.a(dwnfs01704.o)
                0x6e0422f8                _imp__vfprintf
 .idata$5       0x6e0422fc        0x4 C:/Program Files (x86)/mingw-w64/i686-8.1.0-win32-dwarf-rt_v6-rev0/mingw32/bin/../lib/gcc/i686-w64-mingw32/8.1.0/../../../../i686-w64-mingw32/lib/../lib\libmsvcr100.a(dwnfs01722.o)
                0x6e0422fc                _imp__wcscpy
 .idata$5       0x6e042300        0x4 C:/Program Files (x86)/mingw-w64/i686-8.1.0-win32-dwarf-rt_v6-rev0/mingw32/bin/../lib/gcc/i686-w64-mingw32/8.1.0/../../../../i686-w64-mingw32/lib/../lib\libmsvcr100.a(dwnfs01726.o)
                0x6e042300                _imp__wcslen
 .idata$5       0x6e042304        0x4 C:/Program Files (x86)/mingw-w64/i686-8.1.0-win32-dwarf-rt_v6-rev0/mingw32/bin/../lib/gcc/i686-w64-mingw32/8.1.0/../../../../i686-w64-mingw32/lib/../lib\libmsvcr100.a(dwnft.o)
 .idata$5       0x6e042308        0x0 C:/Program Files (x86)/mingw-w64/i686-8.1.0-win32-dwarf-rt_v6-rev0/mingw32/bin/../lib/gcc/i686-w64-mingw32/8.1.0/../../../../i686-w64-mingw32/lib/../lib\libuser32.a(dmceh.o)
 .idata$5       0x6e042308        0x4 C:/Program Files (x86)/mingw-w64/i686-8.1.0-win32-dwarf-rt_v6-rev0/mingw32/bin/../lib/gcc/i686-w64-mingw32/8.1.0/../../../../i686-w64-mingw32/lib/../lib\libuser32.a(dmces00595.o)
                0x6e042308                _imp__MessageBoxW@16
 .idata$5       0x6e04230c        0x4 C:/Program Files (x86)/mingw-w64/i686-8.1.0-win32-dwarf-rt_v6-rev0/mingw32/bin/../lib/gcc/i686-w64-mingw32/8.1.0/../../../../i686-w64-mingw32/lib/../lib\libuser32.a(dmcet.o)
                0x6e042310                __IAT_end__ = .
 SORT_BY_NAME(*)(.idata$6)
 .idata$6       0x6e042310        0xe C:/Program Files (x86)/mingw-w64/i686-8.1.0-win32-dwarf-rt_v6-rev0/mingw32/bin/../lib/gcc/i686-w64-mingw32/8.1.0/../../../../i686-w64-mingw32/lib/../lib\libkernel32.a(dgzcs00083.o)
 .idata$6       0x6e04231e       0x14 C:/Program Files (x86)/mingw-w64/i686-8.1.0-win32-dwarf-rt_v6-rev0/mingw32/bin/../lib/gcc/i686-w64-mingw32/8.1.0/../../../../i686-w64-mingw32/lib/../lib\libkernel32.a(dgzcs00178.o)
 .idata$6       0x6e042332       0x18 C:/Program Files (x86)/mingw-w64/i686-8.1.0-win32-dwarf-rt_v6-rev0/mingw32/bin/../lib/gcc/i686-w64-mingw32/8.1.0/../../../../i686-w64-mingw32/lib/../lib\libkernel32.a(dgzcs00214.o)
 .idata$6       0x6e04234a       0x18 C:/Program Files (x86)/mingw-w64/i686-8.1.0-win32-dwarf-rt_v6-rev0/mingw32/bin/../lib/gcc/i686-w64-mingw32/8.1.0/../../../../i686-w64-mingw32/lib/../lib\libkernel32.a(dgzcs00242.o)
 .idata$6       0x6e042362        0xe C:/Program Files (x86)/mingw-w64/i686-8.1.0-win32-dwarf-rt_v6-rev0/mingw32/bin/../lib/gcc/i686-w64-mingw32/8.1.0/../../../../i686-w64-mingw32/lib/../lib\libkernel32.a(dgzcs00359.o)
 .idata$6       0x6e042370       0x14 C:/Program Files (x86)/mingw-w64/i686-8.1.0-win32-dwarf-rt_v6-rev0/mingw32/bin/../lib/gcc/i686-w64-mingw32/8.1.0/../../../../i686-w64-mingw32/lib/../lib\libkernel32.a(dgzcs00455.o)
 .idata$6       0x6e042384       0x16 C:/Program Files (x86)/mingw-w64/i686-8.1.0-win32-dwarf-rt_v6-rev0/mingw32/bin/../lib/gcc/i686-w64-mingw32/8.1.0/../../../../i686-w64-mingw32/lib/../lib\libkernel32.a(dgzcs00456.o)
 .idata$6       0x6e04239a       0x16 C:/Program Files (x86)/mingw-w64/i686-8.1.0-win32-dwarf-rt_v6-rev0/mingw32/bin/../lib/gcc/i686-w64-mingw32/8.1.0/../../../../i686-w64-mingw32/lib/../lib\libkernel32.a(dgzcs00460.o)
 .idata$6       0x6e0423b0       0x10 C:/Program Files (x86)/mingw-w64/i686-8.1.0-win32-dwarf-rt_v6-rev0/mingw32/bin/../lib/gcc/i686-w64-mingw32/8.1.0/../../../../i686-w64-mingw32/lib/../lib\libkernel32.a(dgzcs00518.o)
 .idata$6       0x6e0423c0       0x16 C:/Program Files (x86)/mingw-w64/i686-8.1.0-win32-dwarf-rt_v6-rev0/mingw32/bin/../lib/gcc/i686-w64-mingw32/8.1.0/../../../../i686-w64-mingw32/lib/../lib\libkernel32.a(dgzcs00535.o)
 .idata$6       0x6e0423d6       0x14 C:/Program Files (x86)/mingw-w64/i686-8.1.0-win32-dwarf-rt_v6-rev0/mingw32/bin/../lib/gcc/i686-w64-mingw32/8.1.0/../../../../i686-w64-mingw32/lib/../lib\libkernel32.a(dgzcs00536.o)
 .idata$6       0x6e0423ea       0x12 C:/Program Files (x86)/mingw-w64/i686-8.1.0-win32-dwarf-rt_v6-rev0/mingw32/bin/../lib/gcc/i686-w64-mingw32/8.1.0/../../../../i686-w64-mingw32/lib/../lib\libkernel32.a(dgzcs00584.o)
 .idata$6       0x6e0423fc       0x1a C:/Program Files (x86)/mingw-w64/i686-8.1.0-win32-dwarf-rt_v6-rev0/mingw32/bin/../lib/gcc/i686-w64-mingw32/8.1.0/../../../../i686-w64-mingw32/lib/../lib\libkernel32.a(dgzcs00638.o)
 .idata$6       0x6e042416       0x10 C:/Program Files (x86)/mingw-w64/i686-8.1.0-win32-dwarf-rt_v6-rev0/mingw32/bin/../lib/gcc/i686-w64-mingw32/8.1.0/../../../../i686-w64-mingw32/lib/../lib\libkernel32.a(dgzcs00666.o)
 .idata$6       0x6e042426       0x1c C:/Program Files (x86)/mingw-w64/i686-8.1.0-win32-dwarf-rt_v6-rev0/mingw32/bin/../lib/gcc/i686-w64-mingw32/8.1.0/../../../../i686-w64-mingw32/lib/../lib\libkernel32.a(dgzcs00750.o)
 .idata$6       0x6e042442       0x14 C:/Program Files (x86)/mingw-w64/i686-8.1.0-win32-dwarf-rt_v6-rev0/mingw32/bin/../lib/gcc/i686-w64-mingw32/8.1.0/../../../../i686-w64-mingw32/lib/../lib\libkernel32.a(dgzcs00778.o)
 .idata$6       0x6e042456       0x18 C:/Program Files (x86)/mingw-w64/i686-8.1.0-win32-dwarf-rt_v6-rev0/mingw32/bin/../lib/gcc/i686-w64-mingw32/8.1.0/../../../../i686-w64-mingw32/lib/../lib\libkernel32.a(dgzcs00836.o)
 .idata$6       0x6e04246e       0x10 C:/Program Files (x86)/mingw-w64/i686-8.1.0-win32-dwarf-rt_v6-rev0/mingw32/bin/../lib/gcc/i686-w64-mingw32/8.1.0/../../../../i686-w64-mingw32/lib/../lib\libkernel32.a(dgzcs00839.o)
 .idata$6       0x6e04247e       0x16 C:/Program Files (x86)/mingw-w64/i686-8.1.0-win32-dwarf-rt_v6-rev0/mingw32/bin/../lib/gcc/i686-w64-mingw32/8.1.0/../../../../i686-w64-mingw32/lib/../lib\libkernel32.a(dgzcs00884.o)
 .idata$6       0x6e042494       0x1a C:/Program Files (x86)/mingw-w64/i686-8.1.0-win32-dwarf-rt_v6-rev0/mingw32/bin/../lib/gcc/i686-w64-mingw32/8.1.0/../../../../i686-w64-mingw32/lib/../lib\libkernel32.a(dgzcs00949.o)
 .idata$6       0x6e0424ae       0x14 C:/Program Files (x86)/mingw-w64/i686-8.1.0-win32-dwarf-rt_v6-rev0/mingw32/bin/../lib/gcc/i686-w64-mingw32/8.1.0/../../../../i686-w64-mingw32/lib/../lib\libkernel32.a(dgzcs00997.o)
 .idata$6       0x6e0424c2       0x10 C:/Program Files (x86)/mingw-w64/i686-8.1.0-win32-dwarf-rt_v6-rev0/mingw32/bin/../lib/gcc/i686-w64-mingw32/8.1.0/../../../../i686-w64-mingw32/lib/../lib\libkernel32.a(dgzcs01114.o)
 .idata$6       0x6e0424d2       0x1e C:/Program Files (x86)/mingw-w64/i686-8.1.0-win32-dwarf-rt_v6-rev0/mingw32/bin/../lib/gcc/i686-w64-mingw32/8.1.0/../../../../i686-w64-mingw32/lib/../lib\libkernel32.a(dgzcs01163.o)
 .idata$6       0x6e0424f0        0x8 C:/Program Files (x86)/mingw-w64/i686-8.1.0-win32-dwarf-rt_v6-rev0/mingw32/bin/../lib/gcc/i686-w64-mingw32/8.1.0/../../../../i686-w64-mingw32/lib/../lib\libkernel32.a(dgzcs01176.o)
 .idata$6       0x6e0424f8       0x14 C:/Program Files (x86)/mingw-w64/i686-8.1.0-win32-dwarf-rt_v6-rev0/mingw32/bin/../lib/gcc/i686-w64-mingw32/8.1.0/../../../../i686-w64-mingw32/lib/../lib\libkernel32.a(dgzcs01190.o)
 .idata$6       0x6e04250c        0xc C:/Program Files (x86)/mingw-w64/i686-8.1.0-win32-dwarf-rt_v6-rev0/mingw32/bin/../lib/gcc/i686-w64-mingw32/8.1.0/../../../../i686-w64-mingw32/lib/../lib\libkernel32.a(dgzcs01195.o)
 .idata$6       0x6e042518        0xa C:/Program Files (x86)/mingw-w64/i686-8.1.0-win32-dwarf-rt_v6-rev0/mingw32/bin/../lib/gcc/i686-w64-mingw32/8.1.0/../../../../i686-w64-mingw32/lib/../lib\libkernel32.a(dgzcs01196.o)
 .idata$6       0x6e042522        0xe C:/Program Files (x86)/mingw-w64/i686-8.1.0-win32-dwarf-rt_v6-rev0/mingw32/bin/../lib/gcc/i686-w64-mingw32/8.1.0/../../../../i686-w64-mingw32/lib/../lib\libkernel32.a(dgzcs01197.o)
 .idata$6       0x6e042530        0xe C:/Program Files (x86)/mingw-w64/i686-8.1.0-win32-dwarf-rt_v6-rev0/mingw32/bin/../lib/gcc/i686-w64-mingw32/8.1.0/../../../../i686-w64-mingw32/lib/../lib\libkernel32.a(dgzcs01198.o)
 .idata$6       0x6e04253e       0x1c C:/Program Files (x86)/mingw-w64/i686-8.1.0-win32-dwarf-rt_v6-rev0/mingw32/bin/../lib/gcc/i686-w64-mingw32/8.1.0/../../../../i686-w64-mingw32/lib/../lib\libkernel32.a(dgzcs01210.o)
 .idata$6       0x6e04255a       0x10 C:/Program Files (x86)/mingw-w64/i686-8.1.0-win32-dwarf-rt_v6-rev0/mingw32/bin/../lib/gcc/i686-w64-mingw32/8.1.0/../../../../i686-w64-mingw32/lib/../lib\libkernel32.a(dgzcs01233.o)
 .idata$6       0x6e04256a        0xe C:/Program Files (x86)/mingw-w64/i686-8.1.0-win32-dwarf-rt_v6-rev0/mingw32/bin/../lib/gcc/i686-w64-mingw32/8.1.0/../../../../i686-w64-mingw32/lib/../lib\libkernel32.a(dgzcs01239.o)
 .idata$6       0x6e042578       0x12 C:/Program Files (x86)/mingw-w64/i686-8.1.0-win32-dwarf-rt_v6-rev0/mingw32/bin/../lib/gcc/i686-w64-mingw32/8.1.0/../../../../i686-w64-mingw32/lib/../lib\libkernel32.a(dgzcs01243.o)
 .idata$6       0x6e04258a       0x10 C:/Program Files (x86)/mingw-w64/i686-8.1.0-win32-dwarf-rt_v6-rev0/mingw32/bin/../lib/gcc/i686-w64-mingw32/8.1.0/../../../../i686-w64-mingw32/lib/../lib\libkernel32.a(dgzcs01246.o)
 .idata$6       0x6e04259a       0x16 C:/Program Files (x86)/mingw-w64/i686-8.1.0-win32-dwarf-rt_v6-rev0/mingw32/bin/../lib/gcc/i686-w64-mingw32/8.1.0/../../../../i686-w64-mingw32/lib/../lib\libkernel32.a(dgzcs01255.o)
 .idata$6       0x6e0425b0       0x16 C:/Program Files (x86)/mingw-w64/i686-8.1.0-win32-dwarf-rt_v6-rev0/mingw32/bin/../lib/gcc/i686-w64-mingw32/8.1.0/../../../../i686-w64-mingw32/lib/../lib\libkernel32.a(dgzcs01279.o)
 .idata$6       0x6e0425c6       0x16 C:/Program Files (x86)/mingw-w64/i686-8.1.0-win32-dwarf-rt_v6-rev0/mingw32/bin/../lib/gcc/i686-w64-mingw32/8.1.0/../../../../i686-w64-mingw32/lib/../lib\libmsvcr100.a(dwnfs00329.o)
 .idata$6       0x6e0425dc       0x16 C:/Program Files (x86)/mingw-w64/i686-8.1.0-win32-dwarf-rt_v6-rev0/mingw32/bin/../lib/gcc/i686-w64-mingw32/8.1.0/../../../../i686-w64-mingw32/lib/../lib\libmsvcr100.a(dwnfs00332.o)
 .idata$6       0x6e0425f2        0xe C:/Program Files (x86)/mingw-w64/i686-8.1.0-win32-dwarf-rt_v6-rev0/mingw32/bin/../lib/gcc/i686-w64-mingw32/8.1.0/../../../../i686-w64-mingw32/lib/../lib\libmsvcr100.a(dwnfs00457.o)
 .idata$6       0x6e042600        0xa C:/Program Files (x86)/mingw-w64/i686-8.1.0-win32-dwarf-rt_v6-rev0/mingw32/bin/../lib/gcc/i686-w64-mingw32/8.1.0/../../../../i686-w64-mingw32/lib/../lib\libmsvcr100.a(dwnfs00559.o)
 .idata$6       0x6e04260a        0x8 C:/Program Files (x86)/mingw-w64/i686-8.1.0-win32-dwarf-rt_v6-rev0/mingw32/bin/../lib/gcc/i686-w64-mingw32/8.1.0/../../../../i686-w64-mingw32/lib/../lib\libmsvcr100.a(dwnfs00576.o)
 .idata$6       0x6e042612        0xc C:/Program Files (x86)/mingw-w64/i686-8.1.0-win32-dwarf-rt_v6-rev0/mingw32/bin/../lib/gcc/i686-w64-mingw32/8.1.0/../../../../i686-w64-mingw32/lib/../lib\libmsvcr100.a(dwnfs00735.o)
 .idata$6       0x6e04261e        0x8 C:/Program Files (x86)/mingw-w64/i686-8.1.0-win32-dwarf-rt_v6-rev0/mingw32/bin/../lib/gcc/i686-w64-mingw32/8.1.0/../../../../i686-w64-mingw32/lib/../lib\libmsvcr100.a(dwnfs00744.o)
 .idata$6       0x6e042626        0x8 C:/Program Files (x86)/mingw-w64/i686-8.1.0-win32-dwarf-rt_v6-rev0/mingw32/bin/../lib/gcc/i686-w64-mingw32/8.1.0/../../../../i686-w64-mingw32/lib/../lib\libmsvcr100.a(dwnfs00858.o)
 .idata$6       0x6e04262e        0xe C:/Program Files (x86)/mingw-w64/i686-8.1.0-win32-dwarf-rt_v6-rev0/mingw32/bin/../lib/gcc/i686-w64-mingw32/8.1.0/../../../../i686-w64-mingw32/lib/../lib\libmsvcr100.a(dwnfs01126.o)
 .idata$6       0x6e04263c        0xc C:/Program Files (x86)/mingw-w64/i686-8.1.0-win32-dwarf-rt_v6-rev0/mingw32/bin/../lib/gcc/i686-w64-mingw32/8.1.0/../../../../i686-w64-mingw32/lib/../lib\libmsvcr100.a(dwnfs01179.o)
 .idata$6       0x6e042648        0xa C:/Program Files (x86)/mingw-w64/i686-8.1.0-win32-dwarf-rt_v6-rev0/mingw32/bin/../lib/gcc/i686-w64-mingw32/8.1.0/../../../../i686-w64-mingw32/lib/../lib\libmsvcr100.a(dwnfs01276.o)
 .idata$6       0x6e042652        0xe C:/Program Files (x86)/mingw-w64/i686-8.1.0-win32-dwarf-rt_v6-rev0/mingw32/bin/../lib/gcc/i686-w64-mingw32/8.1.0/../../../../i686-w64-mingw32/lib/../lib\libmsvcr100.a(dwnfs01314.o)
 .idata$6       0x6e042660        0xa C:/Program Files (x86)/mingw-w64/i686-8.1.0-win32-dwarf-rt_v6-rev0/mingw32/bin/../lib/gcc/i686-w64-mingw32/8.1.0/../../../../i686-w64-mingw32/lib/../lib\libmsvcr100.a(dwnfs01426.o)
 .idata$6       0x6e04266a        0xa C:/Program Files (x86)/mingw-w64/i686-8.1.0-win32-dwarf-rt_v6-rev0/mingw32/bin/../lib/gcc/i686-w64-mingw32/8.1.0/../../../../i686-w64-mingw32/lib/../lib\libmsvcr100.a(dwnfs01456.o)
 .idata$6       0x6e042674        0x8 C:/Program Files (x86)/mingw-w64/i686-8.1.0-win32-dwarf-rt_v6-rev0/mingw32/bin/../lib/gcc/i686-w64-mingw32/8.1.0/../../../../i686-w64-mingw32/lib/../lib\libmsvcr100.a(dwnfs01503.o)
 .idata$6       0x6e04267c        0x8 C:/Program Files (x86)/mingw-w64/i686-8.1.0-win32-dwarf-rt_v6-rev0/mingw32/bin/../lib/gcc/i686-w64-mingw32/8.1.0/../../../../i686-w64-mingw32/lib/../lib\libmsvcr100.a(dwnfs01516.o)
 .idata$6       0x6e042684        0xa C:/Program Files (x86)/mingw-w64/i686-8.1.0-win32-dwarf-rt_v6-rev0/mingw32/bin/../lib/gcc/i686-w64-mingw32/8.1.0/../../../../i686-w64-mingw32/lib/../lib\libmsvcr100.a(dwnfs01521.o)
 .idata$6       0x6e04268e        0xa C:/Program Files (x86)/mingw-w64/i686-8.1.0-win32-dwarf-rt_v6-rev0/mingw32/bin/../lib/gcc/i686-w64-mingw32/8.1.0/../../../../i686-w64-mingw32/lib/../lib\libmsvcr100.a(dwnfs01532.o)
 .idata$6       0x6e042698        0x8 C:/Program Files (x86)/mingw-w64/i686-8.1.0-win32-dwarf-rt_v6-rev0/mingw32/bin/../lib/gcc/i686-w64-mingw32/8.1.0/../../../../i686-w64-mingw32/lib/../lib\libmsvcr100.a(dwnfs01543.o)
 .idata$6       0x6e0426a0        0xa C:/Program Files (x86)/mingw-w64/i686-8.1.0-win32-dwarf-rt_v6-rev0/mingw32/bin/../lib/gcc/i686-w64-mingw32/8.1.0/../../../../i686-w64-mingw32/lib/../lib\libmsvcr100.a(dwnfs01545.o)
 .idata$6       0x6e0426aa        0x8 C:/Program Files (x86)/mingw-w64/i686-8.1.0-win32-dwarf-rt_v6-rev0/mingw32/bin/../lib/gcc/i686-w64-mingw32/8.1.0/../../../../i686-w64-mingw32/lib/../lib\libmsvcr100.a(dwnfs01547.o)
 .idata$6       0x6e0426b2        0x8 C:/Program Files (x86)/mingw-w64/i686-8.1.0-win32-dwarf-rt_v6-rev0/mingw32/bin/../lib/gcc/i686-w64-mingw32/8.1.0/../../../../i686-w64-mingw32/lib/../lib\libmsvcr100.a(dwnfs01548.o)
 .idata$6       0x6e0426ba        0x8 C:/Program Files (x86)/mingw-w64/i686-8.1.0-win32-dwarf-rt_v6-rev0/mingw32/bin/../lib/gcc/i686-w64-mingw32/8.1.0/../../../../i686-w64-mingw32/lib/../lib\libmsvcr100.a(dwnfs01551.o)
 .idata$6       0x6e0426c2        0x8 C:/Program Files (x86)/mingw-w64/i686-8.1.0-win32-dwarf-rt_v6-rev0/mingw32/bin/../lib/gcc/i686-w64-mingw32/8.1.0/../../../../i686-w64-mingw32/lib/../lib\libmsvcr100.a(dwnfs01553.o)
 .idata$6       0x6e0426ca        0x8 C:/Program Files (x86)/mingw-w64/i686-8.1.0-win32-dwarf-rt_v6-rev0/mingw32/bin/../lib/gcc/i686-w64-mingw32/8.1.0/../../../../i686-w64-mingw32/lib/../lib\libmsvcr100.a(dwnfs01558.o)
 .idata$6       0x6e0426d2        0x8 C:/Program Files (x86)/mingw-w64/i686-8.1.0-win32-dwarf-rt_v6-rev0/mingw32/bin/../lib/gcc/i686-w64-mingw32/8.1.0/../../../../i686-w64-mingw32/lib/../lib\libmsvcr100.a(dwnfs01560.o)
 .idata$6       0x6e0426da        0xc C:/Program Files (x86)/mingw-w64/i686-8.1.0-win32-dwarf-rt_v6-rev0/mingw32/bin/../lib/gcc/i686-w64-mingw32/8.1.0/../../../../i686-w64-mingw32/lib/../lib\libmsvcr100.a(dwnfs01563.o)
 .idata$6       0x6e0426e6        0xa C:/Program Files (x86)/mingw-w64/i686-8.1.0-win32-dwarf-rt_v6-rev0/mingw32/bin/../lib/gcc/i686-w64-mingw32/8.1.0/../../../../i686-w64-mingw32/lib/../lib\libmsvcr100.a(dwnfs01565.o)
 .idata$6       0x6e0426f0        0xe C:/Program Files (x86)/mingw-w64/i686-8.1.0-win32-dwarf-rt_v6-rev0/mingw32/bin/../lib/gcc/i686-w64-mingw32/8.1.0/../../../../i686-w64-mingw32/lib/../lib\libmsvcr100.a(dwnfs01607.o)
 .idata$6       0x6e0426fe        0xa C:/Program Files (x86)/mingw-w64/i686-8.1.0-win32-dwarf-rt_v6-rev0/mingw32/bin/../lib/gcc/i686-w64-mingw32/8.1.0/../../../../i686-w64-mingw32/lib/../lib\libmsvcr100.a(dwnfs01611.o)
 .idata$6       0x6e042708        0xa C:/Program Files (x86)/mingw-w64/i686-8.1.0-win32-dwarf-rt_v6-rev0/mingw32/bin/../lib/gcc/i686-w64-mingw32/8.1.0/../../../../i686-w64-mingw32/lib/../lib\libmsvcr100.a(dwnfs01621.o)
 .idata$6       0x6e042712        0xa C:/Program Files (x86)/mingw-w64/i686-8.1.0-win32-dwarf-rt_v6-rev0/mingw32/bin/../lib/gcc/i686-w64-mingw32/8.1.0/../../../../i686-w64-mingw32/lib/../lib\libmsvcr100.a(dwnfs01622.o)
 .idata$6       0x6e04271c        0xa C:/Program Files (x86)/mingw-w64/i686-8.1.0-win32-dwarf-rt_v6-rev0/mingw32/bin/../lib/gcc/i686-w64-mingw32/8.1.0/../../../../i686-w64-mingw32/lib/../lib\libmsvcr100.a(dwnfs01626.o)
 .idata$6       0x6e042726        0x8 C:/Program Files (x86)/mingw-w64/i686-8.1.0-win32-dwarf-rt_v6-rev0/mingw32/bin/../lib/gcc/i686-w64-mingw32/8.1.0/../../../../i686-w64-mingw32/lib/../lib\libmsvcr100.a(dwnfs01639.o)
 .idata$6       0x6e04272e        0xa C:/Program Files (x86)/mingw-w64/i686-8.1.0-win32-dwarf-rt_v6-rev0/mingw32/bin/../lib/gcc/i686-w64-mingw32/8.1.0/../../../../i686-w64-mingw32/lib/../lib\libmsvcr100.a(dwnfs01642.o)
 .idata$6       0x6e042738        0xa C:/Program Files (x86)/mingw-w64/i686-8.1.0-win32-dwarf-rt_v6-rev0/mingw32/bin/../lib/gcc/i686-w64-mingw32/8.1.0/../../../../i686-w64-mingw32/lib/../lib\libmsvcr100.a(dwnfs01645.o)
 .idata$6       0x6e042742        0xa C:/Program Files (x86)/mingw-w64/i686-8.1.0-win32-dwarf-rt_v6-rev0/mingw32/bin/../lib/gcc/i686-w64-mingw32/8.1.0/../../../../i686-w64-mingw32/lib/../lib\libmsvcr100.a(dwnfs01654.o)
 .idata$6       0x6e04274c        0xa C:/Program Files (x86)/mingw-w64/i686-8.1.0-win32-dwarf-rt_v6-rev0/mingw32/bin/../lib/gcc/i686-w64-mingw32/8.1.0/../../../../i686-w64-mingw32/lib/../lib\libmsvcr100.a(dwnfs01663.o)
 .idata$6       0x6e042756        0xa C:/Program Files (x86)/mingw-w64/i686-8.1.0-win32-dwarf-rt_v6-rev0/mingw32/bin/../lib/gcc/i686-w64-mingw32/8.1.0/../../../../i686-w64-mingw32/lib/../lib\libmsvcr100.a(dwnfs01665.o)
 .idata$6       0x6e042760        0xc C:/Program Files (x86)/mingw-w64/i686-8.1.0-win32-dwarf-rt_v6-rev0/mingw32/bin/../lib/gcc/i686-w64-mingw32/8.1.0/../../../../i686-w64-mingw32/lib/../lib\libmsvcr100.a(dwnfs01668.o)
 .idata$6       0x6e04276c        0xa C:/Program Files (x86)/mingw-w64/i686-8.1.0-win32-dwarf-rt_v6-rev0/mingw32/bin/../lib/gcc/i686-w64-mingw32/8.1.0/../../../../i686-w64-mingw32/lib/../lib\libmsvcr100.a(dwnfs01671.o)
 .idata$6       0x6e042776        0xa C:/Program Files (x86)/mingw-w64/i686-8.1.0-win32-dwarf-rt_v6-rev0/mingw32/bin/../lib/gcc/i686-w64-mingw32/8.1.0/../../../../i686-w64-mingw32/lib/../lib\libmsvcr100.a(dwnfs01674.o)
 .idata$6       0x6e042780        0xa C:/Program Files (x86)/mingw-w64/i686-8.1.0-win32-dwarf-rt_v6-rev0/mingw32/bin/../lib/gcc/i686-w64-mingw32/8.1.0/../../../../i686-w64-mingw32/lib/../lib\libmsvcr100.a(dwnfs01675.o)
 .idata$6       0x6e04278a        0xa C:/Program Files (x86)/mingw-w64/i686-8.1.0-win32-dwarf-rt_v6-rev0/mingw32/bin/../lib/gcc/i686-w64-mingw32/8.1.0/../../../../i686-w64-mingw32/lib/../lib\libmsvcr100.a(dwnfs01681.o)
 .idata$6       0x6e042794        0xa C:/Program Files (x86)/mingw-w64/i686-8.1.0-win32-dwarf-rt_v6-rev0/mingw32/bin/../lib/gcc/i686-w64-mingw32/8.1.0/../../../../i686-w64-mingw32/lib/../lib\libmsvcr100.a(dwnfs01699.o)
 .idata$6       0x6e04279e        0xc C:/Program Files (x86)/mingw-w64/i686-8.1.0-win32-dwarf-rt_v6-rev0/mingw32/bin/../lib/gcc/i686-w64-mingw32/8.1.0/../../../../i686-w64-mingw32/lib/../lib\libmsvcr100.a(dwnfs01704.o)
 .idata$6       0x6e0427aa        0xa C:/Program Files (x86)/mingw-w64/i686-8.1.0-win32-dwarf-rt_v6-rev0/mingw32/bin/../lib/gcc/i686-w64-mingw32/8.1.0/../../../../i686-w64-mingw32/lib/../lib\libmsvcr100.a(dwnfs01722.o)
 .idata$6       0x6e0427b4        0xa C:/Program Files (x86)/mingw-w64/i686-8.1.0-win32-dwarf-rt_v6-rev0/mingw32/bin/../lib/gcc/i686-w64-mingw32/8.1.0/../../../../i686-w64-mingw32/lib/../lib\libmsvcr100.a(dwnfs01726.o)
 .idata$6       0x6e0427be        0xe C:/Program Files (x86)/mingw-w64/i686-8.1.0-win32-dwarf-rt_v6-rev0/mingw32/bin/../lib/gcc/i686-w64-mingw32/8.1.0/../../../../i686-w64-mingw32/lib/../lib\libuser32.a(dmces00595.o)
 SORT_BY_NAME(*)(.idata$7)
 .idata$7       0x6e0427cc        0x4 C:/Program Files (x86)/mingw-w64/i686-8.1.0-win32-dwarf-rt_v6-rev0/mingw32/bin/../lib/gcc/i686-w64-mingw32/8.1.0/../../../../i686-w64-mingw32/lib/../lib\libkernel32.a(dgzcs00083.o)
 .idata$7       0x6e0427d0        0x4 C:/Program Files (x86)/mingw-w64/i686-8.1.0-win32-dwarf-rt_v6-rev0/mingw32/bin/../lib/gcc/i686-w64-mingw32/8.1.0/../../../../i686-w64-mingw32/lib/../lib\libkernel32.a(dgzcs00178.o)
 .idata$7       0x6e0427d4        0x4 C:/Program Files (x86)/mingw-w64/i686-8.1.0-win32-dwarf-rt_v6-rev0/mingw32/bin/../lib/gcc/i686-w64-mingw32/8.1.0/../../../../i686-w64-mingw32/lib/../lib\libkernel32.a(dgzcs00214.o)
 .idata$7       0x6e0427d8        0x4 C:/Program Files (x86)/mingw-w64/i686-8.1.0-win32-dwarf-rt_v6-rev0/mingw32/bin/../lib/gcc/i686-w64-mingw32/8.1.0/../../../../i686-w64-mingw32/lib/../lib\libkernel32.a(dgzcs00242.o)
 .idata$7       0x6e0427dc        0x4 C:/Program Files (x86)/mingw-w64/i686-8.1.0-win32-dwarf-rt_v6-rev0/mingw32/bin/../lib/gcc/i686-w64-mingw32/8.1.0/../../../../i686-w64-mingw32/lib/../lib\libkernel32.a(dgzcs00359.o)
 .idata$7       0x6e0427e0        0x4 C:/Program Files (x86)/mingw-w64/i686-8.1.0-win32-dwarf-rt_v6-rev0/mingw32/bin/../lib/gcc/i686-w64-mingw32/8.1.0/../../../../i686-w64-mingw32/lib/../lib\libkernel32.a(dgzcs00455.o)
 .idata$7       0x6e0427e4        0x4 C:/Program Files (x86)/mingw-w64/i686-8.1.0-win32-dwarf-rt_v6-rev0/mingw32/bin/../lib/gcc/i686-w64-mingw32/8.1.0/../../../../i686-w64-mingw32/lib/../lib\libkernel32.a(dgzcs00456.o)
 .idata$7       0x6e0427e8        0x4 C:/Program Files (x86)/mingw-w64/i686-8.1.0-win32-dwarf-rt_v6-rev0/mingw32/bin/../lib/gcc/i686-w64-mingw32/8.1.0/../../../../i686-w64-mingw32/lib/../lib\libkernel32.a(dgzcs00460.o)
 .idata$7       0x6e0427ec        0x4 C:/Program Files (x86)/mingw-w64/i686-8.1.0-win32-dwarf-rt_v6-rev0/mingw32/bin/../lib/gcc/i686-w64-mingw32/8.1.0/../../../../i686-w64-mingw32/lib/../lib\libkernel32.a(dgzcs00518.o)
 .idata$7       0x6e0427f0        0x4 C:/Program Files (x86)/mingw-w64/i686-8.1.0-win32-dwarf-rt_v6-rev0/mingw32/bin/../lib/gcc/i686-w64-mingw32/8.1.0/../../../../i686-w64-mingw32/lib/../lib\libkernel32.a(dgzcs00535.o)
 .idata$7       0x6e0427f4        0x4 C:/Program Files (x86)/mingw-w64/i686-8.1.0-win32-dwarf-rt_v6-rev0/mingw32/bin/../lib/gcc/i686-w64-mingw32/8.1.0/../../../../i686-w64-mingw32/lib/../lib\libkernel32.a(dgzcs00536.o)
 .idata$7       0x6e0427f8        0x4 C:/Program Files (x86)/mingw-w64/i686-8.1.0-win32-dwarf-rt_v6-rev0/mingw32/bin/../lib/gcc/i686-w64-mingw32/8.1.0/../../../../i686-w64-mingw32/lib/../lib\libkernel32.a(dgzcs00584.o)
 .idata$7       0x6e0427fc        0x4 C:/Program Files (x86)/mingw-w64/i686-8.1.0-win32-dwarf-rt_v6-rev0/mingw32/bin/../lib/gcc/i686-w64-mingw32/8.1.0/../../../../i686-w64-mingw32/lib/../lib\libkernel32.a(dgzcs00638.o)
 .idata$7       0x6e042800        0x4 C:/Program Files (x86)/mingw-w64/i686-8.1.0-win32-dwarf-rt_v6-rev0/mingw32/bin/../lib/gcc/i686-w64-mingw32/8.1.0/../../../../i686-w64-mingw32/lib/../lib\libkernel32.a(dgzcs00666.o)
 .idata$7       0x6e042804        0x4 C:/Program Files (x86)/mingw-w64/i686-8.1.0-win32-dwarf-rt_v6-rev0/mingw32/bin/../lib/gcc/i686-w64-mingw32/8.1.0/../../../../i686-w64-mingw32/lib/../lib\libkernel32.a(dgzcs00750.o)
 .idata$7       0x6e042808        0x4 C:/Program Files (x86)/mingw-w64/i686-8.1.0-win32-dwarf-rt_v6-rev0/mingw32/bin/../lib/gcc/i686-w64-mingw32/8.1.0/../../../../i686-w64-mingw32/lib/../lib\libkernel32.a(dgzcs00778.o)
 .idata$7       0x6e04280c        0x4 C:/Program Files (x86)/mingw-w64/i686-8.1.0-win32-dwarf-rt_v6-rev0/mingw32/bin/../lib/gcc/i686-w64-mingw32/8.1.0/../../../../i686-w64-mingw32/lib/../lib\libkernel32.a(dgzcs00836.o)
 .idata$7       0x6e042810        0x4 C:/Program Files (x86)/mingw-w64/i686-8.1.0-win32-dwarf-rt_v6-rev0/mingw32/bin/../lib/gcc/i686-w64-mingw32/8.1.0/../../../../i686-w64-mingw32/lib/../lib\libkernel32.a(dgzcs00839.o)
 .idata$7       0x6e042814        0x4 C:/Program Files (x86)/mingw-w64/i686-8.1.0-win32-dwarf-rt_v6-rev0/mingw32/bin/../lib/gcc/i686-w64-mingw32/8.1.0/../../../../i686-w64-mingw32/lib/../lib\libkernel32.a(dgzcs00884.o)
 .idata$7       0x6e042818        0x4 C:/Program Files (x86)/mingw-w64/i686-8.1.0-win32-dwarf-rt_v6-rev0/mingw32/bin/../lib/gcc/i686-w64-mingw32/8.1.0/../../../../i686-w64-mingw32/lib/../lib\libkernel32.a(dgzcs00949.o)
 .idata$7       0x6e04281c        0x4 C:/Program Files (x86)/mingw-w64/i686-8.1.0-win32-dwarf-rt_v6-rev0/mingw32/bin/../lib/gcc/i686-w64-mingw32/8.1.0/../../../../i686-w64-mingw32/lib/../lib\libkernel32.a(dgzcs00997.o)
 .idata$7       0x6e042820        0x4 C:/Program Files (x86)/mingw-w64/i686-8.1.0-win32-dwarf-rt_v6-rev0/mingw32/bin/../lib/gcc/i686-w64-mingw32/8.1.0/../../../../i686-w64-mingw32/lib/../lib\libkernel32.a(dgzcs01114.o)
 .idata$7       0x6e042824        0x4 C:/Program Files (x86)/mingw-w64/i686-8.1.0-win32-dwarf-rt_v6-rev0/mingw32/bin/../lib/gcc/i686-w64-mingw32/8.1.0/../../../../i686-w64-mingw32/lib/../lib\libkernel32.a(dgzcs01163.o)
 .idata$7       0x6e042828        0x4 C:/Program Files (x86)/mingw-w64/i686-8.1.0-win32-dwarf-rt_v6-rev0/mingw32/bin/../lib/gcc/i686-w64-mingw32/8.1.0/../../../../i686-w64-mingw32/lib/../lib\libkernel32.a(dgzcs01176.o)
 .idata$7       0x6e04282c        0x4 C:/Program Files (x86)/mingw-w64/i686-8.1.0-win32-dwarf-rt_v6-rev0/mingw32/bin/../lib/gcc/i686-w64-mingw32/8.1.0/../../../../i686-w64-mingw32/lib/../lib\libkernel32.a(dgzcs01190.o)
 .idata$7       0x6e042830        0x4 C:/Program Files (x86)/mingw-w64/i686-8.1.0-win32-dwarf-rt_v6-rev0/mingw32/bin/../lib/gcc/i686-w64-mingw32/8.1.0/../../../../i686-w64-mingw32/lib/../lib\libkernel32.a(dgzcs01195.o)
 .idata$7       0x6e042834        0x4 C:/Program Files (x86)/mingw-w64/i686-8.1.0-win32-dwarf-rt_v6-rev0/mingw32/bin/../lib/gcc/i686-w64-mingw32/8.1.0/../../../../i686-w64-mingw32/lib/../lib\libkernel32.a(dgzcs01196.o)
 .idata$7       0x6e042838        0x4 C:/Program Files (x86)/mingw-w64/i686-8.1.0-win32-dwarf-rt_v6-rev0/mingw32/bin/../lib/gcc/i686-w64-mingw32/8.1.0/../../../../i686-w64-mingw32/lib/../lib\libkernel32.a(dgzcs01197.o)
 .idata$7       0x6e04283c        0x4 C:/Program Files (x86)/mingw-w64/i686-8.1.0-win32-dwarf-rt_v6-rev0/mingw32/bin/../lib/gcc/i686-w64-mingw32/8.1.0/../../../../i686-w64-mingw32/lib/../lib\libkernel32.a(dgzcs01198.o)
 .idata$7       0x6e042840        0x4 C:/Program Files (x86)/mingw-w64/i686-8.1.0-win32-dwarf-rt_v6-rev0/mingw32/bin/../lib/gcc/i686-w64-mingw32/8.1.0/../../../../i686-w64-mingw32/lib/../lib\libkernel32.a(dgzcs01210.o)
 .idata$7       0x6e042844        0x4 C:/Program Files (x86)/mingw-w64/i686-8.1.0-win32-dwarf-rt_v6-rev0/mingw32/bin/../lib/gcc/i686-w64-mingw32/8.1.0/../../../../i686-w64-mingw32/lib/../lib\libkernel32.a(dgzcs01233.o)
 .idata$7       0x6e042848        0x4 C:/Program Files (x86)/mingw-w64/i686-8.1.0-win32-dwarf-rt_v6-rev0/mingw32/bin/../lib/gcc/i686-w64-mingw32/8.1.0/../../../../i686-w64-mingw32/lib/../lib\libkernel32.a(dgzcs01239.o)
 .idata$7       0x6e04284c        0x4 C:/Program Files (x86)/mingw-w64/i686-8.1.0-win32-dwarf-rt_v6-rev0/mingw32/bin/../lib/gcc/i686-w64-mingw32/8.1.0/../../../../i686-w64-mingw32/lib/../lib\libkernel32.a(dgzcs01243.o)
 .idata$7       0x6e042850        0x4 C:/Program Files (x86)/mingw-w64/i686-8.1.0-win32-dwarf-rt_v6-rev0/mingw32/bin/../lib/gcc/i686-w64-mingw32/8.1.0/../../../../i686-w64-mingw32/lib/../lib\libkernel32.a(dgzcs01246.o)
 .idata$7       0x6e042854        0x4 C:/Program Files (x86)/mingw-w64/i686-8.1.0-win32-dwarf-rt_v6-rev0/mingw32/bin/../lib/gcc/i686-w64-mingw32/8.1.0/../../../../i686-w64-mingw32/lib/../lib\libkernel32.a(dgzcs01255.o)
 .idata$7       0x6e042858        0x4 C:/Program Files (x86)/mingw-w64/i686-8.1.0-win32-dwarf-rt_v6-rev0/mingw32/bin/../lib/gcc/i686-w64-mingw32/8.1.0/../../../../i686-w64-mingw32/lib/../lib\libkernel32.a(dgzcs01279.o)
 .idata$7       0x6e04285c       0x10 C:/Program Files (x86)/mingw-w64/i686-8.1.0-win32-dwarf-rt_v6-rev0/mingw32/bin/../lib/gcc/i686-w64-mingw32/8.1.0/../../../../i686-w64-mingw32/lib/../lib\libkernel32.a(dgzct.o)
                0x6e04285c                _lib32_libkernel32_a_iname
 .idata$7       0x6e04286c        0x4 C:/Program Files (x86)/mingw-w64/i686-8.1.0-win32-dwarf-rt_v6-rev0/mingw32/bin/../lib/gcc/i686-w64-mingw32/8.1.0/../../../../i686-w64-mingw32/lib/../lib\libmsvcr100.a(dwnfs00329.o)
 .idata$7       0x6e042870        0x4 C:/Program Files (x86)/mingw-w64/i686-8.1.0-win32-dwarf-rt_v6-rev0/mingw32/bin/../lib/gcc/i686-w64-mingw32/8.1.0/../../../../i686-w64-mingw32/lib/../lib\libmsvcr100.a(dwnfs00332.o)
 .idata$7       0x6e042874        0x4 C:/Program Files (x86)/mingw-w64/i686-8.1.0-win32-dwarf-rt_v6-rev0/mingw32/bin/../lib/gcc/i686-w64-mingw32/8.1.0/../../../../i686-w64-mingw32/lib/../lib\libmsvcr100.a(dwnfs00457.o)
 .idata$7       0x6e042878        0x4 C:/Program Files (x86)/mingw-w64/i686-8.1.0-win32-dwarf-rt_v6-rev0/mingw32/bin/../lib/gcc/i686-w64-mingw32/8.1.0/../../../../i686-w64-mingw32/lib/../lib\libmsvcr100.a(dwnfs00559.o)
 .idata$7       0x6e04287c        0x4 C:/Program Files (x86)/mingw-w64/i686-8.1.0-win32-dwarf-rt_v6-rev0/mingw32/bin/../lib/gcc/i686-w64-mingw32/8.1.0/../../../../i686-w64-mingw32/lib/../lib\libmsvcr100.a(dwnfs00576.o)
 .idata$7       0x6e042880        0x4 C:/Program Files (x86)/mingw-w64/i686-8.1.0-win32-dwarf-rt_v6-rev0/mingw32/bin/../lib/gcc/i686-w64-mingw32/8.1.0/../../../../i686-w64-mingw32/lib/../lib\libmsvcr100.a(dwnfs00735.o)
 .idata$7       0x6e042884        0x4 C:/Program Files (x86)/mingw-w64/i686-8.1.0-win32-dwarf-rt_v6-rev0/mingw32/bin/../lib/gcc/i686-w64-mingw32/8.1.0/../../../../i686-w64-mingw32/lib/../lib\libmsvcr100.a(dwnfs00744.o)
 .idata$7       0x6e042888        0x4 C:/Program Files (x86)/mingw-w64/i686-8.1.0-win32-dwarf-rt_v6-rev0/mingw32/bin/../lib/gcc/i686-w64-mingw32/8.1.0/../../../../i686-w64-mingw32/lib/../lib\libmsvcr100.a(dwnfs00858.o)
 .idata$7       0x6e04288c        0x4 C:/Program Files (x86)/mingw-w64/i686-8.1.0-win32-dwarf-rt_v6-rev0/mingw32/bin/../lib/gcc/i686-w64-mingw32/8.1.0/../../../../i686-w64-mingw32/lib/../lib\libmsvcr100.a(dwnfs01126.o)
 .idata$7       0x6e042890        0x4 C:/Program Files (x86)/mingw-w64/i686-8.1.0-win32-dwarf-rt_v6-rev0/mingw32/bin/../lib/gcc/i686-w64-mingw32/8.1.0/../../../../i686-w64-mingw32/lib/../lib\libmsvcr100.a(dwnfs01179.o)
 .idata$7       0x6e042894        0x4 C:/Program Files (x86)/mingw-w64/i686-8.1.0-win32-dwarf-rt_v6-rev0/mingw32/bin/../lib/gcc/i686-w64-mingw32/8.1.0/../../../../i686-w64-mingw32/lib/../lib\libmsvcr100.a(dwnfs01276.o)
 .idata$7       0x6e042898        0x4 C:/Program Files (x86)/mingw-w64/i686-8.1.0-win32-dwarf-rt_v6-rev0/mingw32/bin/../lib/gcc/i686-w64-mingw32/8.1.0/../../../../i686-w64-mingw32/lib/../lib\libmsvcr100.a(dwnfs01314.o)
 .idata$7       0x6e04289c        0x4 C:/Program Files (x86)/mingw-w64/i686-8.1.0-win32-dwarf-rt_v6-rev0/mingw32/bin/../lib/gcc/i686-w64-mingw32/8.1.0/../../../../i686-w64-mingw32/lib/../lib\libmsvcr100.a(dwnfs01426.o)
 .idata$7       0x6e0428a0        0x4 C:/Program Files (x86)/mingw-w64/i686-8.1.0-win32-dwarf-rt_v6-rev0/mingw32/bin/../lib/gcc/i686-w64-mingw32/8.1.0/../../../../i686-w64-mingw32/lib/../lib\libmsvcr100.a(dwnfs01456.o)
 .idata$7       0x6e0428a4        0x4 C:/Program Files (x86)/mingw-w64/i686-8.1.0-win32-dwarf-rt_v6-rev0/mingw32/bin/../lib/gcc/i686-w64-mingw32/8.1.0/../../../../i686-w64-mingw32/lib/../lib\libmsvcr100.a(dwnfs01503.o)
 .idata$7       0x6e0428a8        0x4 C:/Program Files (x86)/mingw-w64/i686-8.1.0-win32-dwarf-rt_v6-rev0/mingw32/bin/../lib/gcc/i686-w64-mingw32/8.1.0/../../../../i686-w64-mingw32/lib/../lib\libmsvcr100.a(dwnfs01516.o)
 .idata$7       0x6e0428ac        0x4 C:/Program Files (x86)/mingw-w64/i686-8.1.0-win32-dwarf-rt_v6-rev0/mingw32/bin/../lib/gcc/i686-w64-mingw32/8.1.0/../../../../i686-w64-mingw32/lib/../lib\libmsvcr100.a(dwnfs01521.o)
 .idata$7       0x6e0428b0        0x4 C:/Program Files (x86)/mingw-w64/i686-8.1.0-win32-dwarf-rt_v6-rev0/mingw32/bin/../lib/gcc/i686-w64-mingw32/8.1.0/../../../../i686-w64-mingw32/lib/../lib\libmsvcr100.a(dwnfs01532.o)
 .idata$7       0x6e0428b4        0x4 C:/Program Files (x86)/mingw-w64/i686-8.1.0-win32-dwarf-rt_v6-rev0/mingw32/bin/../lib/gcc/i686-w64-mingw32/8.1.0/../../../../i686-w64-mingw32/lib/../lib\libmsvcr100.a(dwnfs01543.o)
 .idata$7       0x6e0428b8        0x4 C:/Program Files (x86)/mingw-w64/i686-8.1.0-win32-dwarf-rt_v6-rev0/mingw32/bin/../lib/gcc/i686-w64-mingw32/8.1.0/../../../../i686-w64-mingw32/lib/../lib\libmsvcr100.a(dwnfs01545.o)
 .idata$7       0x6e0428bc        0x4 C:/Program Files (x86)/mingw-w64/i686-8.1.0-win32-dwarf-rt_v6-rev0/mingw32/bin/../lib/gcc/i686-w64-mingw32/8.1.0/../../../../i686-w64-mingw32/lib/../lib\libmsvcr100.a(dwnfs01547.o)
 .idata$7       0x6e0428c0        0x4 C:/Program Files (x86)/mingw-w64/i686-8.1.0-win32-dwarf-rt_v6-rev0/mingw32/bin/../lib/gcc/i686-w64-mingw32/8.1.0/../../../../i686-w64-mingw32/lib/../lib\libmsvcr100.a(dwnfs01548.o)
 .idata$7       0x6e0428c4        0x4 C:/Program Files (x86)/mingw-w64/i686-8.1.0-win32-dwarf-rt_v6-rev0/mingw32/bin/../lib/gcc/i686-w64-mingw32/8.1.0/../../../../i686-w64-mingw32/lib/../lib\libmsvcr100.a(dwnfs01551.o)
 .idata$7       0x6e0428c8        0x4 C:/Program Files (x86)/mingw-w64/i686-8.1.0-win32-dwarf-rt_v6-rev0/mingw32/bin/../lib/gcc/i686-w64-mingw32/8.1.0/../../../../i686-w64-mingw32/lib/../lib\libmsvcr100.a(dwnfs01553.o)
 .idata$7       0x6e0428cc        0x4 C:/Program Files (x86)/mingw-w64/i686-8.1.0-win32-dwarf-rt_v6-rev0/mingw32/bin/../lib/gcc/i686-w64-mingw32/8.1.0/../../../../i686-w64-mingw32/lib/../lib\libmsvcr100.a(dwnfs01558.o)
 .idata$7       0x6e0428d0        0x4 C:/Program Files (x86)/mingw-w64/i686-8.1.0-win32-dwarf-rt_v6-rev0/mingw32/bin/../lib/gcc/i686-w64-mingw32/8.1.0/../../../../i686-w64-mingw32/lib/../lib\libmsvcr100.a(dwnfs01560.o)
 .idata$7       0x6e0428d4        0x4 C:/Program Files (x86)/mingw-w64/i686-8.1.0-win32-dwarf-rt_v6-rev0/mingw32/bin/../lib/gcc/i686-w64-mingw32/8.1.0/../../../../i686-w64-mingw32/lib/../lib\libmsvcr100.a(dwnfs01563.o)
 .idata$7       0x6e0428d8        0x4 C:/Program Files (x86)/mingw-w64/i686-8.1.0-win32-dwarf-rt_v6-rev0/mingw32/bin/../lib/gcc/i686-w64-mingw32/8.1.0/../../../../i686-w64-mingw32/lib/../lib\libmsvcr100.a(dwnfs01565.o)
 .idata$7       0x6e0428dc        0x4 C:/Program Files (x86)/mingw-w64/i686-8.1.0-win32-dwarf-rt_v6-rev0/mingw32/bin/../lib/gcc/i686-w64-mingw32/8.1.0/../../../../i686-w64-mingw32/lib/../lib\libmsvcr100.a(dwnfs01607.o)
 .idata$7       0x6e0428e0        0x4 C:/Program Files (x86)/mingw-w64/i686-8.1.0-win32-dwarf-rt_v6-rev0/mingw32/bin/../lib/gcc/i686-w64-mingw32/8.1.0/../../../../i686-w64-mingw32/lib/../lib\libmsvcr100.a(dwnfs01611.o)
 .idata$7       0x6e0428e4        0x4 C:/Program Files (x86)/mingw-w64/i686-8.1.0-win32-dwarf-rt_v6-rev0/mingw32/bin/../lib/gcc/i686-w64-mingw32/8.1.0/../../../../i686-w64-mingw32/lib/../lib\libmsvcr100.a(dwnfs01621.o)
 .idata$7       0x6e0428e8        0x4 C:/Program Files (x86)/mingw-w64/i686-8.1.0-win32-dwarf-rt_v6-rev0/mingw32/bin/../lib/gcc/i686-w64-mingw32/8.1.0/../../../../i686-w64-mingw32/lib/../lib\libmsvcr100.a(dwnfs01622.o)
 .idata$7       0x6e0428ec        0x4 C:/Program Files (x86)/mingw-w64/i686-8.1.0-win32-dwarf-rt_v6-rev0/mingw32/bin/../lib/gcc/i686-w64-mingw32/8.1.0/../../../../i686-w64-mingw32/lib/../lib\libmsvcr100.a(dwnfs01626.o)
 .idata$7       0x6e0428f0        0x4 C:/Program Files (x86)/mingw-w64/i686-8.1.0-win32-dwarf-rt_v6-rev0/mingw32/bin/../lib/gcc/i686-w64-mingw32/8.1.0/../../../../i686-w64-mingw32/lib/../lib\libmsvcr100.a(dwnfs01639.o)
 .idata$7       0x6e0428f4        0x4 C:/Program Files (x86)/mingw-w64/i686-8.1.0-win32-dwarf-rt_v6-rev0/mingw32/bin/../lib/gcc/i686-w64-mingw32/8.1.0/../../../../i686-w64-mingw32/lib/../lib\libmsvcr100.a(dwnfs01642.o)
 .idata$7       0x6e0428f8        0x4 C:/Program Files (x86)/mingw-w64/i686-8.1.0-win32-dwarf-rt_v6-rev0/mingw32/bin/../lib/gcc/i686-w64-mingw32/8.1.0/../../../../i686-w64-mingw32/lib/../lib\libmsvcr100.a(dwnfs01645.o)
 .idata$7       0x6e0428fc        0x4 C:/Program Files (x86)/mingw-w64/i686-8.1.0-win32-dwarf-rt_v6-rev0/mingw32/bin/../lib/gcc/i686-w64-mingw32/8.1.0/../../../../i686-w64-mingw32/lib/../lib\libmsvcr100.a(dwnfs01654.o)
 .idata$7       0x6e042900        0x4 C:/Program Files (x86)/mingw-w64/i686-8.1.0-win32-dwarf-rt_v6-rev0/mingw32/bin/../lib/gcc/i686-w64-mingw32/8.1.0/../../../../i686-w64-mingw32/lib/../lib\libmsvcr100.a(dwnfs01663.o)
 .idata$7       0x6e042904        0x4 C:/Program Files (x86)/mingw-w64/i686-8.1.0-win32-dwarf-rt_v6-rev0/mingw32/bin/../lib/gcc/i686-w64-mingw32/8.1.0/../../../../i686-w64-mingw32/lib/../lib\libmsvcr100.a(dwnfs01665.o)
 .idata$7       0x6e042908        0x4 C:/Program Files (x86)/mingw-w64/i686-8.1.0-win32-dwarf-rt_v6-rev0/mingw32/bin/../lib/gcc/i686-w64-mingw32/8.1.0/../../../../i686-w64-mingw32/lib/../lib\libmsvcr100.a(dwnfs01668.o)
 .idata$7       0x6e04290c        0x4 C:/Program Files (x86)/mingw-w64/i686-8.1.0-win32-dwarf-rt_v6-rev0/mingw32/bin/../lib/gcc/i686-w64-mingw32/8.1.0/../../../../i686-w64-mingw32/lib/../lib\libmsvcr100.a(dwnfs01671.o)
 .idata$7       0x6e042910        0x4 C:/Program Files (x86)/mingw-w64/i686-8.1.0-win32-dwarf-rt_v6-rev0/mingw32/bin/../lib/gcc/i686-w64-mingw32/8.1.0/../../../../i686-w64-mingw32/lib/../lib\libmsvcr100.a(dwnfs01674.o)
 .idata$7       0x6e042914        0x4 C:/Program Files (x86)/mingw-w64/i686-8.1.0-win32-dwarf-rt_v6-rev0/mingw32/bin/../lib/gcc/i686-w64-mingw32/8.1.0/../../../../i686-w64-mingw32/lib/../lib\libmsvcr100.a(dwnfs01675.o)
 .idata$7       0x6e042918        0x4 C:/Program Files (x86)/mingw-w64/i686-8.1.0-win32-dwarf-rt_v6-rev0/mingw32/bin/../lib/gcc/i686-w64-mingw32/8.1.0/../../../../i686-w64-mingw32/lib/../lib\libmsvcr100.a(dwnfs01681.o)
 .idata$7       0x6e04291c        0x4 C:/Program Files (x86)/mingw-w64/i686-8.1.0-win32-dwarf-rt_v6-rev0/mingw32/bin/../lib/gcc/i686-w64-mingw32/8.1.0/../../../../i686-w64-mingw32/lib/../lib\libmsvcr100.a(dwnfs01699.o)
 .idata$7       0x6e042920        0x4 C:/Program Files (x86)/mingw-w64/i686-8.1.0-win32-dwarf-rt_v6-rev0/mingw32/bin/../lib/gcc/i686-w64-mingw32/8.1.0/../../../../i686-w64-mingw32/lib/../lib\libmsvcr100.a(dwnfs01704.o)
 .idata$7       0x6e042924        0x4 C:/Program Files (x86)/mingw-w64/i686-8.1.0-win32-dwarf-rt_v6-rev0/mingw32/bin/../lib/gcc/i686-w64-mingw32/8.1.0/../../../../i686-w64-mingw32/lib/../lib\libmsvcr100.a(dwnfs01722.o)
 .idata$7       0x6e042928        0x4 C:/Program Files (x86)/mingw-w64/i686-8.1.0-win32-dwarf-rt_v6-rev0/mingw32/bin/../lib/gcc/i686-w64-mingw32/8.1.0/../../../../i686-w64-mingw32/lib/../lib\libmsvcr100.a(dwnfs01726.o)
 .idata$7       0x6e04292c       0x10 C:/Program Files (x86)/mingw-w64/i686-8.1.0-win32-dwarf-rt_v6-rev0/mingw32/bin/../lib/gcc/i686-w64-mingw32/8.1.0/../../../../i686-w64-mingw32/lib/../lib\libmsvcr100.a(dwnft.o)
                0x6e04292c                _lib32_libmsvcr100_a_iname
 .idata$7       0x6e04293c        0x4 C:/Program Files (x86)/mingw-w64/i686-8.1.0-win32-dwarf-rt_v6-rev0/mingw32/bin/../lib/gcc/i686-w64-mingw32/8.1.0/../../../../i686-w64-mingw32/lib/../lib\libuser32.a(dmces00595.o)
 .idata$7       0x6e042940        0xc C:/Program Files (x86)/mingw-w64/i686-8.1.0-win32-dwarf-rt_v6-rev0/mingw32/bin/../lib/gcc/i686-w64-mingw32/8.1.0/../../../../i686-w64-mingw32/lib/../lib\libuser32.a(dmcet.o)
                0x6e042940                _lib32_libuser32_a_iname

.CRT            0x6e043000      0x200
                0x6e043000                ___crt_xc_start__ = .
 *(SORT_BY_NAME(.CRT$XC*))
 .CRT$XCA       0x6e043000        0x4 C:/Program Files (x86)/mingw-w64/i686-8.1.0-win32-dwarf-rt_v6-rev0/mingw32/bin/../lib/gcc/i686-w64-mingw32/8.1.0/../../../../i686-w64-mingw32/lib/../lib\libmingw32.a(lib32_libmingw32_a-cinitexe.o)
                0x6e043000                __xc_a
 .CRT$XCZ       0x6e043004        0x4 C:/Program Files (x86)/mingw-w64/i686-8.1.0-win32-dwarf-rt_v6-rev0/mingw32/bin/../lib/gcc/i686-w64-mingw32/8.1.0/../../../../i686-w64-mingw32/lib/../lib\libmingw32.a(lib32_libmingw32_a-cinitexe.o)
                0x6e043004                __xc_z
                0x6e043008                ___crt_xc_end__ = .
                0x6e043008                ___crt_xi_start__ = .
 *(SORT_BY_NAME(.CRT$XI*))
 .CRT$XIA       0x6e043008        0x4 C:/Program Files (x86)/mingw-w64/i686-8.1.0-win32-dwarf-rt_v6-rev0/mingw32/bin/../lib/gcc/i686-w64-mingw32/8.1.0/../../../../i686-w64-mingw32/lib/../lib\libmingw32.a(lib32_libmingw32_a-cinitexe.o)
                0x6e043008                __xi_a
 .CRT$XIAA      0x6e04300c        0x4 C:/Program Files (x86)/mingw-w64/i686-8.1.0-win32-dwarf-rt_v6-rev0/mingw32/bin/../lib/gcc/i686-w64-mingw32/8.1.0/../../../../i686-w64-mingw32/lib/../lib/dllcrt2.o
                0x6e04300c                pcinit
 .CRT$XIZ       0x6e043010        0x4 C:/Program Files (x86)/mingw-w64/i686-8.1.0-win32-dwarf-rt_v6-rev0/mingw32/bin/../lib/gcc/i686-w64-mingw32/8.1.0/../../../../i686-w64-mingw32/lib/../lib\libmingw32.a(lib32_libmingw32_a-cinitexe.o)
                0x6e043010                __xi_z
                0x6e043014                ___crt_xi_end__ = .
                0x6e043014                ___crt_xl_start__ = .
 *(SORT_BY_NAME(.CRT$XL*))
 .CRT$XLA       0x6e043014        0x4 C:/Program Files (x86)/mingw-w64/i686-8.1.0-win32-dwarf-rt_v6-rev0/mingw32/bin/../lib/gcc/i686-w64-mingw32/8.1.0/../../../../i686-w64-mingw32/lib/../lib\libmingw32.a(lib32_libmingw32_a-tlssup.o)
                0x6e043014                __xl_a
 .CRT$XLC       0x6e043018        0x4 C:/Program Files (x86)/mingw-w64/i686-8.1.0-win32-dwarf-rt_v6-rev0/mingw32/bin/../lib/gcc/i686-w64-mingw32/8.1.0/../../../../i686-w64-mingw32/lib/../lib\libmingw32.a(lib32_libmingw32_a-tlssup.o)
                0x6e043018                __xl_c
 .CRT$XLD       0x6e04301c        0x4 C:/Program Files (x86)/mingw-w64/i686-8.1.0-win32-dwarf-rt_v6-rev0/mingw32/bin/../lib/gcc/i686-w64-mingw32/8.1.0/../../../../i686-w64-mingw32/lib/../lib\libmingw32.a(lib32_libmingw32_a-tlssup.o)
                0x6e04301c                __xl_d
 .CRT$XLZ       0x6e043020        0x4 C:/Program Files (x86)/mingw-w64/i686-8.1.0-win32-dwarf-rt_v6-rev0/mingw32/bin/../lib/gcc/i686-w64-mingw32/8.1.0/../../../../i686-w64-mingw32/lib/../lib\libmingw32.a(lib32_libmingw32_a-tlssup.o)
                0x6e043020                __xl_z
                0x6e043024                ___crt_xp_start__ = .
 *(SORT_BY_NAME(.CRT$XP*))
                0x6e043024                ___crt_xp_end__ = .
                0x6e043024                ___crt_xt_start__ = .
 *(SORT_BY_NAME(.CRT$XT*))
                0x6e043024                ___crt_xt_end__ = .
 .CRT$XDA       0x6e043024        0x4 C:/Program Files (x86)/mingw-w64/i686-8.1.0-win32-dwarf-rt_v6-rev0/mingw32/bin/../lib/gcc/i686-w64-mingw32/8.1.0/../../../../i686-w64-mingw32/lib/../lib\libmingw32.a(lib32_libmingw32_a-tlssup.o)
 .CRT$XDZ       0x6e043028        0x4 C:/Program Files (x86)/mingw-w64/i686-8.1.0-win32-dwarf-rt_v6-rev0/mingw32/bin/../lib/gcc/i686-w64-mingw32/8.1.0/../../../../i686-w64-mingw32/lib/../lib\libmingw32.a(lib32_libmingw32_a-tlssup.o)

.tls            0x6e044000      0x200
                0x6e044000                ___tls_start__ = .
 *(.tls$AAA)
 *(.tls)
 .tls           0x6e044000        0x4 C:/Program Files (x86)/mingw-w64/i686-8.1.0-win32-dwarf-rt_v6-rev0/mingw32/bin/../lib/gcc/i686-w64-mingw32/8.1.0/../../../../i686-w64-mingw32/lib/../lib\libmingw32.a(lib32_libmingw32_a-tlssup.o)
                0x6e044000                _tls_start
 *(.tls$)
 *(SORT_BY_NAME(.tls$*))
 .tls$ZZZ       0x6e044004        0x4 C:/Program Files (x86)/mingw-w64/i686-8.1.0-win32-dwarf-rt_v6-rev0/mingw32/bin/../lib/gcc/i686-w64-mingw32/8.1.0/../../../../i686-w64-mingw32/lib/../lib\libmingw32.a(lib32_libmingw32_a-tlssup.o)
                0x6e044004                _tls_end
 *(.tls$ZZZ)
                0x6e044008                ___tls_end__ = .

.endjunk        0x6e045000        0x0
                [!provide]                PROVIDE (end = .)
                [!provide]                PROVIDE (_end = .)
                0x6e045000                __end__ = .

.rsrc
 *(.rsrc)
 *(.rsrc$*)

.reloc          0x6e045000     0x1a00
 *(.reloc)
 .reloc         0x6e045000     0x198c dll stuff

.stab
 *(.stab)

.stabstr
 *(.stabstr)

.debug_aranges
 *(.debug_aranges)

.zdebug_aranges
 *(.zdebug_aranges)

.debug_pubnames
 *(.debug_pubnames)

.zdebug_pubnames
 *(.zdebug_pubnames)

.debug_pubtypes
 *(.debug_pubtypes)

.zdebug_pubtypes
 *(.zdebug_pubtypes)

.debug_info
 *(.debug_info .gnu.linkonce.wi.*)

.zdebug_info
 *(.zdebug_info .zdebug.gnu.linkonce.wi.*)

.debug_abbrev
 *(.debug_abbrev)

.zdebug_abbrev
 *(.zdebug_abbrev)

.debug_line
 *(.debug_line)

.zdebug_line
 *(.zdebug_line)

.debug_frame
 *(.debug_frame*)

.zdebug_frame
 *(.zdebug_frame*)

.debug_str
 *(.debug_str)

.zdebug_str
 *(.zdebug_str)

.debug_loc
 *(.debug_loc)

.zdebug_loc
 *(.zdebug_loc)

.debug_macinfo
 *(.debug_macinfo)

.zdebug_macinfo
 *(.zdebug_macinfo)

.debug_weaknames
 *(.debug_weaknames)

.zdebug_weaknames
 *(.zdebug_weaknames)

.debug_funcnames
 *(.debug_funcnames)

.zdebug_funcnames
 *(.zdebug_funcnames)

.debug_typenames
 *(.debug_typenames)

.zdebug_typenames
 *(.zdebug_typenames)

.debug_varnames
 *(.debug_varnames)

.zdebug_varnames
 *(.zdebug_varnames)

.debug_macro
 *(.debug_macro)

.zdebug_macro
 *(.zdebug_macro)

.debug_ranges
 *(.debug_ranges)

.zdebug_ranges
 *(.zdebug_ranges)

.debug_types
 *(.debug_types .gnu.linkonce.wt.*)

.zdebug_types
 *(.zdebug_types .gnu.linkonce.wt.*)

.debug_gdb_scripts
 *(.debug_gdb_scripts)

.zdebug_gdb_scripts
 *(.zdebug_gdb_scripts)
OUTPUT(xac_client.lib pei-i386)
LOAD dll stuff
